ASxxxx Assembler V02.00 + NoICE + SDCC mods  (Zilog Z80 / Hitachi HD64180), page 1.
Hexadecimal [16-Bits]



                              1 .area _DATA
                              2 .area _CODE
                              3 
ASxxxx Assembler V02.00 + NoICE + SDCC mods  (Zilog Z80 / Hitachi HD64180), page 2.
Hexadecimal [16-Bits]



                              4 .include "entity.h.s"
                              1 ;; ====================================
                              2 ;; ====================================
                              3 ;; ENTITY PUBLIC FUNCTIONS
                              4 ;; ====================================
                              5 ;; ====================================
                              6 .globl entityDraw
                              7 .globl entityErase
                              8 .globl entityCheckCollision
                              9 .globl entityUpdatePhysics
                             10 
                             11 .macro defineEntity name, x,y, h, w, vx, vy, ax, ay, onOff, clr
                             12 	name'_data::
                             13 		name'_x:	.db x		;; X coordinate			(8 bits)
                             14 		name'_y:	.db y		;; Y coordinate			(8 bits)
                             15 		name'_h:	.db h		;; Height			(8 bits)
                             16 		name'_w:	.db w		;; Width			(8 bits)
                             17 		name'_vx:	.dw vx		;; Velocity at X axis 		(16 bits)
                             18 		name'_vy:	.dw vy		;; Velocity at Y axis		(16 bits)
                             19 		name'_ax:	.dw ax		;; Acceleration at X axis	(16 bits)
                             20 		name'_ay:	.dw ay		;; Acceleration at Y axis	(16 bits)
                             21 		name'_onOff:	.db onOff	;; Entity enabled/disabled	(8 bits)
                             22 		name'_clr:	.db clr		;; Entity color pattern		(8 bits)
                             23 .endm
                             24 
                     0000    25 .equ Ent_x, 	0	;; X coordinate
                     0001    26 .equ Ent_y, 	1	;; Y coordinate
                     0002    27 .equ Ent_h, 	2	;; Height
                     0003    28 .equ Ent_w, 	3	;; Width
                     0004    29 .equ Ent_vx_I,	4	;; Velocity at X axis, integer part
                     0005    30 .equ Ent_vx_F,	5	;; Velocity at X axis, fractional part
                     0006    31 .equ Ent_vy_I,	6	;; Velocity at Y axis, integer part
                     0007    32 .equ Ent_vy_F,	7	;; Velocity at Y axis, fractional part
                     0008    33 .equ Ent_ax_I,	8	;; Acceleration at X axis, integer part
                     0009    34 .equ Ent_ax_F,	9	;; Acceleration at X axis, fractional part
                     000A    35 .equ Ent_ay_I,	10	;; Acceleration at Y axis, integer part
                     000B    36 .equ Ent_ay_F,	11	;; Acceleration at Y axis, fractional part
                     000C    37 .equ Ent_onOff,	12	;; Entity enabled/disabled
                     000D    38 .equ Ent_clr, 	13	;; Entity color pattern	
ASxxxx Assembler V02.00 + NoICE + SDCC mods  (Zilog Z80 / Hitachi HD64180), page 3.
Hexadecimal [16-Bits]



                              5 .include "utility.h.s"
                              1 ;; ====================================
                              2 ;; ====================================
                              3 ;; INCLUDED CPCTELERA FUNCTIONS
                              4 ;; ====================================
                              5 ;; ====================================
                              6 .globl cpct_waitVSYNC_asm
                              7 .globl cpct_drawSolidBox_asm
                              8 .globl cpct_getScreenPtr_asm
                              9 .globl cpct_scanKeyboard_asm
                             10 .globl cpct_isKeyPressed_asm
                             11 .globl cpct_disableFirmware_asm
                             12 .globl cpct_setVideoMode_asm
                             13 .globl cpct_setPalette_asm
ASxxxx Assembler V02.00 + NoICE + SDCC mods  (Zilog Z80 / Hitachi HD64180), page 4.
Hexadecimal [16-Bits]



                              6 
                              7 ;; ====================================
                              8 ;; ====================================
                              9 ;; PRIVATE DATA
                             10 ;; ====================================
                             11 ;; ====================================
                             12 
                             13 ;; .macro defineEntity name, x, y, h, w, vx, vy, ax, ay, onOff, clr
                             14 
   0000                      15 defineEntity frisbee, #80-2, #84, #8, #2, #0000, #0000, #0000, #0000, #1, #0x0F
   0000                       1 	frisbee_data::
   0000 4E                    2 		frisbee_x:	.db #80-2		;; X coordinate			(8 bits)
   0001 54                    3 		frisbee_y:	.db #84		;; Y coordinate			(8 bits)
   0002 08                    4 		frisbee_h:	.db #8		;; Height			(8 bits)
   0003 02                    5 		frisbee_w:	.db #2		;; Width			(8 bits)
   0004 00 00                 6 		frisbee_vx:	.dw #0000		;; Velocity at X axis 		(16 bits)
   0006 00 00                 7 		frisbee_vy:	.dw #0000		;; Velocity at Y axis		(16 bits)
   0008 00 00                 8 		frisbee_ax:	.dw #0000		;; Acceleration at X axis	(16 bits)
   000A 00 00                 9 		frisbee_ay:	.dw #0000		;; Acceleration at Y axis	(16 bits)
   000C 01                   10 		frisbee_onOff:	.db #1	;; Entity enabled/disabled	(8 bits)
   000D 0F                   11 		frisbee_clr:	.db #0x0F		;; Entity color pattern		(8 bits)
                             16 
                             17 
                             18 ;; ====================================
                             19 ;; ====================================
                             20 ;; PUBLIC FUNCTIONS
                             21 ;; ====================================
                             22 ;; ====================================
                             23 
                             24 ;; =========================================
                             25 ;; Desactiva el frisbee
                             26 ;; Modifica A
                             27 ;; =========================================
   000E                      28 frisbee_setOff::
   000E 3E 00         [ 7]   29 	ld 	a, #0
   0010 32 0C 00      [13]   30 	ld 	(frisbee_onOff), a
   0013 C9            [10]   31 	ret
                             32 
   0014                      33 frisbee_erase::
   0014 DD 21 00 00   [14]   34 	ld 	ix, #frisbee_data
   0018 CD 00 00      [17]   35 	call entityErase		;; Pintar cuadrado azul fondo
                             36 
   001B C9            [10]   37 	ret
                             38 
                             39 ;; =========================================
                             40 ;; Actualiza el estado del frisbee
                             41 ;; Modifica A
                             42 ;; =========================================
   001C                      43 frisbee_update::
                             44 
   001C 3A 0C 00      [13]   45 	ld 	a, (frisbee_onOff)	;; A <= frisbee_onOff
   001F FE 01         [ 7]   46 	cp 	#1
   0021 20 0B         [12]   47 	jr 	nz, not_active		;; A != 1?
                             48 	
                             49 		;; Active
ASxxxx Assembler V02.00 + NoICE + SDCC mods  (Zilog Z80 / Hitachi HD64180), page 5.
Hexadecimal [16-Bits]



   0023 DD 21 00 00   [14]   50 		ld 	ix, #frisbee_data
   0027 CD 00 00      [17]   51 		call entityUpdatePhysics
                             52 
   002A CD 54 00      [17]   53 		call moveLeft
   002D C9            [10]   54 		ret
                             55 
   002E                      56 	not_active:
   002E 3E 01         [ 7]   57 		ld 	a, #1
   0030 32 0C 00      [13]   58 		ld 	(frisbee_onOff), a
   0033 C9            [10]   59 	ret
                             60 
   0034                      61 frisbee_draw::
                             62 
   0034 DD 21 00 00   [14]   63 	ld 	ix, #frisbee_data
   0038 CD 00 00      [17]   64 	call entityDraw 		;; Pintar cuadrado azul cian
                             65 
   003B C9            [10]   66 	ret
                             67 	
                             68 ;; ====================================
                             69 ;; ====================================
                             70 ;; PRIVATE FUNCTIONS
                             71 ;; ====================================
                             72 ;; ====================================
                             73 
                             74 ;; =========================================
                             75 ;; Mueve el frisbee a la derecha un píxel
                             76 ;; Modifica A
                             77 ;; =========================================
   003C                      78 moveRight:
   003C 3A 00 00      [13]   79 	ld 	a, (frisbee_x) 		;; A = frisbee_x
   003F FE 4D         [ 7]   80 	cp 	#80-3 			;; A == right_limit - frisbee_width?
   0041 28 04         [12]   81 	jr 	z, cant_move_right 		
   0043 3C            [ 4]   82 		inc 	a 		;; move right one pixel
   0044 32 00 00      [13]   83 		ld 	(frisbee_x), a
   0047                      84 	cant_move_right:
   0047 C9            [10]   85 	ret
                             86 
                             87 ;; =========================================
                             88 ;; Mueve el frisbee abajo un píxel
                             89 ;; Modifica A
                             90 ;; =========================================
   0048                      91 moveDown:
   0048 3A 01 00      [13]   92 	ld 	a, (frisbee_y) 		;; A = frisbee_x
   004B FE BC         [ 7]   93 	cp 	#200-12 		;; A == bottom_limit - frisbee_height?
   004D 28 04         [12]   94 	jr 	z, cant_move_down 		
   004F 3C            [ 4]   95 		inc 	a 		;; move down one pixel
   0050 32 01 00      [13]   96 		ld 	(frisbee_y), a
   0053                      97 	cant_move_down:
   0053 C9            [10]   98 	ret
                             99 
                            100 ;; ===========================================
                            101 ;; Mueve el frisbee a la izquierda un píxel
                            102 ;; Modifica A
                            103 ;; ===========================================
   0054                     104 moveLeft:
ASxxxx Assembler V02.00 + NoICE + SDCC mods  (Zilog Z80 / Hitachi HD64180), page 6.
Hexadecimal [16-Bits]



   0054 3A 00 00      [13]  105 	ld 	a, (frisbee_x) 		;; A = frisbee_x
   0057 FE 00         [ 7]  106 	cp 	#0 			;; A == left_limit?
   0059 20 0C         [12]  107 	jr 	nz, can_move_left 
   005B 3E 4E         [ 7]  108 		ld 	a, #80-2 	;; restore initial position
   005D 32 00 00      [13]  109 		ld 	(frisbee_x), a
   0060 3E 50         [ 7]  110 		ld 	a, #80
   0062 32 01 00      [13]  111 		ld 	(frisbee_y), a	
   0065 18 0C         [12]  112 		jr 	cant_move_left
   0067                     113 	can_move_left:	
   0067 DD 21 00 00   [14]  114 		ld	ix, #frisbee_data
   006B DD 36 08 FF   [19]  115 		ld 	Ent_ax_I(ix), #-1
   006F DD 36 09 80   [19]  116 		ld 	Ent_ax_F(ix), #-128	;; Ent_ax <= FF(-1)80(-128) (-128)
                            117 
   0073                     118 	cant_move_left:
   0073 C9            [10]  119 	ret
                            120 
                            121 ;; =========================================
                            122 ;; Mueve el frisbee arriba un píxel
                            123 ;; Modifica A
                            124 ;; =========================================
   0074                     125 moveUp:
   0074 3A 01 00      [13]  126 	ld 	a, (frisbee_y) 		;; A = frisbee_y
   0077 FE 00         [ 7]  127 	cp 	#0 			;; A == top_limit?
   0079 28 04         [12]  128 	jr 	z, cant_move_up 		
   007B 3D            [ 4]  129 		dec 	a 		;; move up one pixel
   007C 32 01 00      [13]  130 		ld 	(frisbee_y), a
   007F                     131 	cant_move_up:
   007F C9            [10]  132 	ret
                            133 
                            134 ;; ================================================
                            135 ;; Pinta un cuadrado en pantalla del color elegido
                            136 ;; Entrada:
                            137 ;; 	A => Colour Pattern
                            138 ;; Modifica AF, BC, DE, HL
                            139 ;; ================================================
   0080                     140 drawFrisbee:
   0080 F5            [11]  141 	push 	af 
   0081 11 00 C0      [10]  142 	ld 	de, #0xC000 		;; Video memory  pointer
   0084 3A 00 00      [13]  143 	ld 	a, (frisbee_x) 
   0087 4F            [ 4]  144 	ld 	c, a			;; C = frisbee_x
   0088 3A 01 00      [13]  145 	ld 	a, (frisbee_y) 
   008B 47            [ 4]  146 	ld 	b, a 			;; B = frisbee_y
   008C CD 00 00      [17]  147 	call cpct_getScreenPtr_asm 	;; HL = frisbee screen pointer
                            148 
   008F EB            [ 4]  149 	ex 	de, hl 			;; DE = frisbee screen pointer
   0090 F1            [10]  150 	pop 	af 			;; A = User selected colour
   0091 01 02 08      [10]  151 	ld 	bc, #0x0802		;; 8x8 píxeles
   0094 CD 00 00      [17]  152 	call cpct_drawSolidBox_asm
                            153 
   0097 C9            [10]  154 	ret
