ASxxxx Linker V03.00 + NoICE + sdld,  page 1.
Hexadecimal  [32-Bits]

Area                                    Addr        Size        Decimal Bytes (Attributes)
--------------------------------        ----        ----        ------- ----- ------------
.  .ABS.                            00000000    00000000 =           0. bytes (ABS,CON)

      Value  Global                              Global Defined In Module
      -----  --------------------------------   ------------------------
     00000000  .__.ABS.                           cpct_keyboard
     00000000  l__CABS                         
     00000000  l__DABS                         
     00000000  l__GSFINAL                      
     00000000  l__GSINIT                       
     00000000  l__HOME                         
     00000000  s__CABS                         
     00000000  s__DABS                         
     00000006  l__DATA                         
     00000012  l__INITIALIZED                  
     00000012  l__INITIALIZER                  
     00000100  s__CODE                         
     00001853  l__CODE                         
     00001953  s__DATA                         
     00001959  s__INITIALIZED                  
     0000196B  s__GSFINAL                      
     0000196B  s__GSINIT                       
     0000196B  s__HOME                         
     0000196B  s__INITIALIZER                  

ASxxxx Linker V03.00 + NoICE + sdld,  page 2.
Hexadecimal  [32-Bits]

Area                                    Addr        Size        Decimal Bytes (Attributes)
--------------------------------        ----        ----        ------- ----- ------------
_CODE                               00000100    00001853 =        6227. bytes (REL,CON)

      Value  Global                              Global Defined In Module
      -----  --------------------------------   ------------------------
     00000100  _initAcel                          IA
     00000216  _cerca                             IA
     00000221  _medio                             IA
     0000022C  _lejos                             IA
     00000237  _acelMu                            IA
     00000242  _acelPo                            IA
     0000024D  _acelMed                           IA
     00000258  _rulex                             IA
     0000025C  _rulex1                            IA
     00000260  _rulex2                            IA
     00000264  _ruley                             IA
     00000268  _ruley1                            IA
     0000026C  _ruley2                            IA
     00000270  _calculateDom                      IA
     00000596  _defuzzi                           IA
     00000697  _calcule                           IA
     0000071F  _calcularb_direc                   IA
     00000754  _fuzzificacion                     IA
     000008B1  _moveIA                            IA
     00000901  entityDraw                         
     00000922  entityErase                        
     0000093C  entityUpdatePhysics                
     00000A41  entityCheckCollision               
     00000A96  entityUpdatePosition               
     00000B12  negateHL                           
     00000B43  frisbee_data                       
     00000B5C  init_data                          
     00000B75  frisbee_setOff                     
     00000B7B  frisbee_restart                    
     00000BA4  frisbee_erase                      
     00000BAC  frisbee_setVelocities              
     00000BE3  frisbee_setEffect                  
     00000BEE  frisbee_update                     
     00000C09  frisbee_draw                       
     00000C25  frisbee_checkGoal                  
     00000C47  _main                              
     00000C52  _cpct_keyboardStatusBuffer         cpct_keyboard
     00000C5C  player_data                        cpct_keyboard
     00000C73  enemy_data                         cpct_keyboard
     00000C8A  player_erase                       cpct_keyboard
     00000C99  player_update                      cpct_keyboard
     00000CD2  player_draw                        cpct_keyboard
     00000ED1  menuStart                          
     00000EDA  game_data                          
     00000EE5  gameStart                          
     00000EEC  getVideoPtr                        
     00000EF0  incTeam1Points                     
     00000EFF  incTeam2Points                     
     00000F12  play_music                         
     00000F22  stop_music                         
ASxxxx Linker V03.00 + NoICE + sdld,  page 3.
Hexadecimal  [32-Bits]

Area                                    Addr        Size        Decimal Bytes (Attributes)
--------------------------------        ----        ----        ------- ----- ------------
_CODE                               00000100    00001853 =        6227. bytes (REL,CON)

      Value  Global                              Global Defined In Module
      -----  --------------------------------   ------------------------
     00000F83  __divuint                          
     00000F8B  __divuchar                         
     00000F92  __divu8                            
     00000F95  __divu16                           
     00000FC4  _cpct_isKeyPressed                 cpct_keyboard
     00000FC4  cpct_isKeyPressed_asm              cpct_keyboard
     00000FD0  cpct_setPalette_asm                cpct_video
     00000FE3  _cpct_akp_digidrumStatus           cpct_audio
     00000FE4  _cpct_akp_songLoopTimes            cpct_audio
     00000FE5  _cpct_akp_musicPlay                cpct_audio
     00000FE5  cpct_akp_musicPlay_asm             cpct_audio
     000016E8  _cpct_akp_musicInit                cpct_audio
     000016EF  cpct_akp_musicInit_asm             cpct_audio
     00001748  _cpct_akp_stop                     cpct_audio
     00001748  cpct_akp_stop_asm                  cpct_audio
     0000175B  _cpct_akp_SFXGetInstrument         cpct_audio
     00001760  cpct_akp_SFXGetInstrument_asm      cpct_audio
     00001774  _cpct_akp_SFXInit                  cpct_audio
     0000177B  cpct_akp_SFXInit_asm               cpct_audio
     00001782  _cpct_akp_SFXStopAll               cpct_audio
     00001782  cpct_akp_SFXStopAll_asm            cpct_audio
     0000178F  _cpct_akp_SFXPlay                  cpct_audio
     000017A1  cpct_akp_SFXPlay_asm               cpct_audio
     000017EE  _cpct_akp_SFXStop                  cpct_audio
     000017F3  cpct_akp_SFXStop_asm               cpct_audio
     0000180C  __mulint                           
     00001814  __mul16                            
     00001828  _cpct_setVideoMemoryPage           cpct_video
     00001828  cpct_setVideoMemoryPage_asm        cpct_video
     00001831  _cpct_waitVSYNC                    cpct_video
     00001831  cpct_waitVSYNC_asm                 cpct_video
     00001839  cpct_setVideoMode_asm              cpct_video
     00001846  cpct_memcpy_asm                    cpct_memutils
     00001849  _cpct_disableFirmware              cpct_firmware
     00001849  _cpct_removeInterruptHandler       cpct_firmware
     00001849  cpct_disableFirmware_asm           cpct_firmware
     00001849  cpct_removeInterruptHandler_asm    cpct_firmware
     00001859  cpct_drawSolidBox_asm              cpct_sprites
     00001905  _cpct_mode_rom_status              cpct_firmware
     00001906  cpct_getScreenPtr_asm              cpct_video
     00001922  _cpct_scanKeyboard                 cpct_keyboard
     00001922  cpct_scanKeyboard_asm              cpct_keyboard

ASxxxx Linker V03.00 + NoICE + sdld,  page 4.
Hexadecimal  [32-Bits]

Area                                    Addr        Size        Decimal Bytes (Attributes)
--------------------------------        ----        ----        ------- ----- ------------
_DATA                               00001953    00000006 =           6. bytes (REL,CON)

      Value  Global                              Global Defined In Module
      -----  --------------------------------   ------------------------
     00001953  _aceleracion                       IA

ASxxxx Linker V03.00 + NoICE + sdld,  page 5.
Hexadecimal  [32-Bits]

Area                                    Addr        Size        Decimal Bytes (Attributes)
--------------------------------        ----        ----        ------- ----- ------------
_INITIALIZED                        00001959    00000012 =          18. bytes (REL,CON)

      Value  Global                              Global Defined In Module
      -----  --------------------------------   ------------------------
     00001959  _vRulesx                           IA
     0000195F  _vRulesy                           IA
     00001965  _fmems                             IA
ASxxxx Linker V03.00 + NoICE + sdld,  page 6.
Hexadecimal  [32-Bits]

Area                                    Addr        Size        Decimal Bytes (Attributes)
--------------------------------        ----        ----        ------- ----- ------------
_INITIALIZER                        0000196B    00000012 =          18. bytes (REL,CON)

      Value  Global                              Global Defined In Module
      -----  --------------------------------   ------------------------
ASxxxx Linker V03.00 + NoICE + sdld,  page 7.

Files Linked                              [ module(s) ]

obj/IA.rel                                [ IA ]
obj/entity.rel                            [  ]
obj/frisbee.rel                           [  ]
obj/entity.h.rel                          [  ]
obj/game.h.rel                            [  ]
obj/player.h.rel                          [  ]
obj/animation.rel                         [  ]
obj/utility.h.rel                         [  ]
obj/main.rel                              [  ]
obj/menu.h.rel                            [  ]
obj/frisbee.h.rel                         [  ]
obj/player.rel                            [ cpct_keyboard ]
obj/menu.rel                              [  ]
obj/game.rel                              [  ]


Libraries Linked                          [ object file ]

/home/markets/git/cpctelera/cpctelera/tools/sdcc-3.5.5/bin/../share/sdcc/lib/z80/z80.lib
                                          [ divunsigned.rel ]
/home/markets/git/cpctelera/cpctelera/cpctelera.lib
                                          [ cpct_isKeyPressed.rel ]
/home/markets/git/cpctelera/cpctelera/cpctelera.lib
                                          [ cpct_setPalette_asmbindings.rel ]
/home/markets/git/cpctelera/cpctelera/cpctelera.lib
                                          [ arkostracker.rel ]
/home/markets/git/cpctelera/cpctelera/tools/sdcc-3.5.5/bin/../share/sdcc/lib/z80/z80.lib
                                          [ mul.rel ]
/home/markets/git/cpctelera/cpctelera/cpctelera.lib
                                          [ cpct_setVideoMemoryPage.rel ]
/home/markets/git/cpctelera/cpctelera/cpctelera.lib
                                          [ cpct_waitVSYNC.rel ]
/home/markets/git/cpctelera/cpctelera/cpctelera.lib
                                          [ cpct_setVideoMode_asmbindings.re ]
/home/markets/git/cpctelera/cpctelera/cpctelera.lib
                                          [ cpct_memcpy_asmbindings.rel ]
/home/markets/git/cpctelera/cpctelera/cpctelera.lib
                                          [ cpct_removeInterruptHandler.rel ]
/home/markets/git/cpctelera/cpctelera/cpctelera.lib
                                          [ cpct_drawSolidBox_asmbindings.re ]
/home/markets/git/cpctelera/cpctelera/cpctelera.lib
                                          [ cpc_mode_rom_status.rel ]
/home/markets/git/cpctelera/cpctelera/cpctelera.lib
                                          [ cpct_getScreenPtr_asmbindings.re ]
/home/markets/git/cpctelera/cpctelera/cpctelera.lib
                                          [ cpct_scanKeyboard.rel ]

ASxxxx Linker V03.00 + NoICE + sdld,  page 8.

User Base Address Definitions

_CODE = 0x0100
_DATA = 0x0000

