ASxxxx Assembler V02.00 + NoICE + SDCC mods  (Zilog Z80 / Hitachi HD64180), page 1.
Hexadecimal [16-Bits]



                     0020     1 std_acc = 32 	;; standard acceleration per frame
                              2 
                              3 .area _DATA
                              4 .area _CODE
ASxxxx Assembler V02.00 + NoICE + SDCC mods  (Zilog Z80 / Hitachi HD64180), page 2.
Hexadecimal [16-Bits]



                              5 .include "utility.h.s"
                              1 ;; ====================================
                              2 ;; ====================================
                              3 ;; INCLUDED CPCTELERA FUNCTIONS
                              4 ;; ====================================
                              5 ;; ====================================
                              6 .globl cpct_waitVSYNC_asm
                              7 .globl cpct_drawSolidBox_asm
                              8 .globl cpct_getScreenPtr_asm
                              9 .globl cpct_scanKeyboard_asm
                             10 .globl cpct_isKeyPressed_asm
                             11 .globl cpct_disableFirmware_asm
                             12 .globl cpct_setVideoMode_asm
                             13 .globl cpct_setPalette_asm
                             14 .globl cpct_memcpy_asm
                             15 .globl negateHL
                             16 .globl cpct_setVideoMemoryPage_asm
                             17 .globl cpct_akp_musicPlay_asm
                             18 .globl cpct_akp_stop_asm
                             19 .globl cpct_drawSprite_asm
                             20 .globl cpct_setInterruptHandler_asm
                             21 .globl cpct_setPALColour_asm
                             22 .globl cpct_drawStringM2_asm
                             23 .globl cpct_drawStringM1_f_asm
ASxxxx Assembler V02.00 + NoICE + SDCC mods  (Zilog Z80 / Hitachi HD64180), page 3.
Hexadecimal [16-Bits]



                              6 .include "entity.h.s"
                              1 ;; ====================================
                              2 ;; ====================================
                              3 ;; ENTITY PUBLIC FUNCTIONS
                              4 ;; ====================================
                              5 ;; ====================================
                              6 .globl entityDraw
                              7 .globl entityErase
                              8 .globl entityCheckCollision
                              9 .globl entityUpdatePhysics
                             10 .globl entityUpdatePosition
                             11 
                             12 
                             13 .macro defineEntity name, x,y, h, w, vx, vy, ax, ay, normal, sprites_ptr, id
                             14 	name'_data::
                             15 		name'_x:	.dw x		;; X coordinate			(16 bits)
                             16 		name'_y:	.dw y		;; Y coordinate			(16 bits)
                             17 		name'_h:	.db h		;; Height			(8 bits)
                             18 		name'_w:	.db w		;; Width			(8 bits)
                             19 		name'_vx:	.dw vx		;; Velocity at X axis 		(16 bits)
                             20 		name'_vy:	.dw vy		;; Velocity at Y axis		(16 bits)
                             21 		name'_ax:	.dw ax		;; Acceleration at X axis	(16 bits)
                             22 		name'_ay:	.dw ay		;; Acceleration at Y axis	(16 bits)
                             23 		name'_normal:	.dw normal	;; Normal force			(16 bits)
                             24 		name'_last_x:	.db x		;; Last x rendered		(8 bits)
                             25 		name'_erase_x:	.db x		;; x rendered at same buffer	(8 bits)
                             26 		name'_last_y:	.db y		;; Last y rendered		(8 bits)
                             27 		name'_erase_y:	.db y		;; y rendered at same buffer	(8 bits)
                             28 		name'_state:	.db #0		;; Entity animation state	(8 bits)
                             29 		name'_lastState:.db #0		;; Last entity animation state	(8 bits)
                             30 		name'_signal:	.db #-1		;; Signal recived for animations(8 bits)
                             31 		name'_sprite:	.db #0		;; Entity sprite index		(8 bits)
                             32 		name'_sprites_ptr: .dw sprites_ptr ;; Pointer to sprites	(16 bits)
                             33 		name'_id:	.db id		;; Numeric ID			(8 bits)
                             34 .endm
                             35 
                             36 
                             37 ;; ====================================
                             38 ;; ====================================
                             39 ;; ENTITY PUBLIC DATA
                             40 ;; ====================================
                             41 ;; ====================================
                             42 
                             43 .globl robot_1_sprites
                             44 .globl robot_2_sprites
                             45 .globl frisbee_sprites
                             46 
                     0000    47 .equ Ent_x_I, 		0	;; X coordinate, integer part
                     0001    48 .equ Ent_x_F, 		1	;; X coordinate, fractional part
                     0002    49 .equ Ent_y_I, 		2	;; Y coordinate, integer part
                     0003    50 .equ Ent_y_F, 		3	;; Y coordinate, fractional part
                     0004    51 .equ Ent_h, 		4	;; Height
                     0005    52 .equ Ent_w, 		5	;; Width
                     0006    53 .equ Ent_vx_I,		6	;; Velocity at X axis, integer part
                     0007    54 .equ Ent_vx_F,		7	;; Velocity at X axis, fractional part
ASxxxx Assembler V02.00 + NoICE + SDCC mods  (Zilog Z80 / Hitachi HD64180), page 4.
Hexadecimal [16-Bits]



                     0008    55 .equ Ent_vy_I,		8	;; Velocity at Y axis, integer part
                     0009    56 .equ Ent_vy_F,		9	;; Velocity at Y axis, fractional part
                     000A    57 .equ Ent_ax_I,		10	;; Acceleration at X axis, integer part
                     000B    58 .equ Ent_ax_F,		11	;; Acceleration at X axis, fractional part
                     000C    59 .equ Ent_ay_I,		12	;; Acceleration at Y axis, integer part
                     000D    60 .equ Ent_ay_F,		13	;; Acceleration at Y axis, fractional part
                     000E    61 .equ Ent_N_I,		14	;; Normal force, integer part
                     000F    62 .equ Ent_N_F,		15	;; Normal force, fractional part
                     0010    63 .equ Ent_last_x,	16	;; Last x rendered
                     0011    64 .equ Ent_erase_x,	17	;; x rendered at same buffer
                     0012    65 .equ Ent_last_y,	18	;; Last y rendered
                     0013    66 .equ Ent_erase_y,	19	;; y rendered at same buffer
                     0014    67 .equ Ent_state,		20	;; Entity animation state
                     0015    68 .equ Ent_lastState,	21	;; Last entity animation state
                     0016    69 .equ Ent_signal,	22	;; Signar for animations
                     0017    70 .equ Ent_sprite, 	23	;; Entity sprite index
                     0018    71 .equ Ent_sprites_ptr_H, 24	;; Pointer to sprite, high part
                     0019    72 .equ Ent_sprites_ptr_L, 25	;; Pointer to sprite, high part
                     001A    73 .equ Ent_id, 		26	;; Numeric ID
                             74 				;; Frisbee 	0
                             75 				;; Player1 	1
                             76 				;; Enemy1	2
                             77 
                     0003    78 .equ MAX_VEL_X, 3 
                     FFFFFFFD    79 .equ MIN_VEL_X, -3
                     0003    80 .equ MAX_VEL_Y, 3
                     FFFFFFFD    81 .equ MIN_VEL_Y, -3
                             82 
ASxxxx Assembler V02.00 + NoICE + SDCC mods  (Zilog Z80 / Hitachi HD64180), page 5.
Hexadecimal [16-Bits]



                              7 .include "frisbee.h.s"
                              1 ;; =========================
                              2 ;; =========================
                              3 ;; FRISBEE PUBLIC FUNCTIONS
                              4 ;; =========================
                              5 ;; =========================
                              6 .globl frisbee_erase
                              7 .globl frisbee_update
                              8 .globl frisbee_draw
                              9 .globl frisbee_data
                             10 .globl frisbee_setEffect
                             11 .globl frisbee_setVelocities
                             12 .globl frisbee_checkGoal
                             13 .globl frisbee_setState
                             14 .globl update_frisbee_animation
                             15 	
                     001B    16 .equ Frisbee_effect_I, 27
                     001C    17 .equ Frisbee_effect_F, 28
                     0008    18 .equ std_eff, 0x0008
                     FFF8    19 .equ std_N_eff, 0xFFF8
ASxxxx Assembler V02.00 + NoICE + SDCC mods  (Zilog Z80 / Hitachi HD64180), page 6.
Hexadecimal [16-Bits]



                              8 .include "game.h.s"
                              1 ;; ====================================
                              2 ;; ====================================
                              3 ;; GAME PUBLIC FUNCTIONS
                              4 ;; ====================================
                              5 ;; ====================================
                              6 .globl gameStart
                              7 .globl getVideoPtr
                              8 .globl incTeam1Points
                              9 .globl incTeam2Points
                             10 .globl player_data
                             11 .globl enemy_data
                             12 .globl player2_data
                             13 .globl enemy2_data
                             14 .globl game_data
                             15 .globl paletteM1
                             16 .globl paletteM2
                             17 ;;.globl paletteM0
                             18 .globl blackPaletteM1
                             19 
                             20 .globl game_type
                             21 .globl game_numPlayers
                             22 .globl game_WinCondition
                             23 
                             24 .globl game_maxScore
                             25 .globl game_t1Score
                             26 .globl game_t2Score
                             27 
                             28 .globl game_minute
                             29 .globl game_secLeft
                             30 .globl game_secRight
                             31 .globl game_maxTime
                             32 .globl game_map
                             33 
                             34 .globl game_musicOptions
                             35 .globl game_timeOptions
                             36 
                             37 .globl game_interrMusic
                             38 .globl game_interrTime
                             39 .globl game_musicPlayer
                             40 .globl game_musicEffects
                             41 
                             42 .globl game_enableMusic
                             43 
                             44 
                             45 ;; ====================================
                             46 ;; ====================================
                             47 ;; GAME PUBLIC DATA
                             48 ;; ====================================
                             49 ;; ====================================
                     0050    50 .equ RIGHT_LIMIT,	80
                     0000    51 .equ LEFT_LIMIT,	0
                     001E    52 .equ TOP_LIMIT,	 	30
                     00C8    53 .equ BOTTOM_LIMIT,	200
                     0028    54 .equ CENTER_LIMIT,	40
ASxxxx Assembler V02.00 + NoICE + SDCC mods  (Zilog Z80 / Hitachi HD64180), page 7.
Hexadecimal [16-Bits]



                              9 .include "keyboard/keyboard.s"
                              1 ;;-----------------------------LICENSE NOTICE------------------------------------
                              2 ;;  This file is part of CPCtelera: An Amstrad CPC Game Engine 
                              3 ;;  Copyright (C) 2014 ronaldo / Fremos / Cheesetea / ByteRealms (@FranGallegoBR)
                              4 ;;
                              5 ;;  This program is free software: you can redistribute it and/or modify
                              6 ;;  it under the terms of the GNU Lesser General Public License as published by
                              7 ;;  the Free Software Foundation, either version 3 of the License, or
                              8 ;;  (at your option) any later version.
                              9 ;;
                             10 ;;  This program is distributed in the hope that it will be useful,
                             11 ;;  but WITHOUT ANY WARRANTY; without even the implied warranty of
                             12 ;;  MERCHANTABILITY or FITNESS FOR A PARTICULAR PURPOSE.  See the
                             13 ;;  GNU Lesser General Public License for more details.
                             14 ;;
                             15 ;;  You should have received a copy of the GNU Lesser General Public License
                             16 ;;  along with this program.  If not, see <http://www.gnu.org/licenses/>.
                             17 ;;-------------------------------------------------------------------------------
                             18 .module cpct_keyboard
                             19 
                             20 ;; bndry directive does not work when linking previously compiled files
                             21 ;.bndry 16
                             22 ;;   16-byte aligned in memory to let functions use 8-bit maths for pointing
                             23 ;;   (alignment not working on user linking)
                             24 
   0000                      25 _cpct_keyboardStatusBuffer:: .ds 10
                             26 
                             27 ;;
                             28 ;; Assembly constant definitions for keyboard mapping
                             29 ;;
                             30 
                             31 ;; Matrix Line 0x00
                     0100    32 .equ Key_CursorUp     ,#0x0100  ;; Bit 0 (01h) => | 0000 0001 |
                     0200    33 .equ Key_CursorRight  ,#0x0200  ;; Bit 1 (02h) => | 0000 0010 |
                     0400    34 .equ Key_CursorDown   ,#0x0400  ;; Bit 2 (04h) => | 0000 0100 |
                     0800    35 .equ Key_F9           ,#0x0800  ;; Bit 3 (08h) => | 0000 1000 |
                     1000    36 .equ Key_F6           ,#0x1000  ;; Bit 4 (10h) => | 0001 0000 |
                     2000    37 .equ Key_F3           ,#0x2000  ;; Bit 5 (20h) => | 0010 0000 |
                     4000    38 .equ Key_Enter        ,#0x4000  ;; Bit 6 (40h) => | 0100 0000 |
                     8000    39 .equ Key_FDot         ,#0x8000  ;; Bit 7 (80h) => | 1000 0000 |
                             40 ;; Matrix Line 0x01
                     0101    41 .equ Key_CursorLeft   ,#0x0101
                     0201    42 .equ Key_Copy         ,#0x0201
                     0401    43 .equ Key_F7           ,#0x0401
                     0801    44 .equ Key_F8           ,#0x0801
                     1001    45 .equ Key_F5           ,#0x1001
                     2001    46 .equ Key_F1           ,#0x2001
                     4001    47 .equ Key_F2           ,#0x4001
                     8001    48 .equ Key_F0           ,#0x8001
                             49 ;; Matrix Line 0x02
                     0102    50 .equ Key_Clr          ,#0x0102
                     0202    51 .equ Key_OpenBracket  ,#0x0202
                     0402    52 .equ Key_Return       ,#0x0402
                     0802    53 .equ Key_CloseBracket ,#0x0802
                     1002    54 .equ Key_F4           ,#0x1002
ASxxxx Assembler V02.00 + NoICE + SDCC mods  (Zilog Z80 / Hitachi HD64180), page 8.
Hexadecimal [16-Bits]



                     2002    55 .equ Key_Shift        ,#0x2002
                     4002    56 .equ Key_BackSlash    ,#0x4002
                     8002    57 .equ Key_Control      ,#0x8002
                             58 ;; Matrix Line 0x03
                     0103    59 .equ Key_Caret        ,#0x0103
                     0203    60 .equ Key_Hyphen       ,#0x0203
                     0403    61 .equ Key_At           ,#0x0403
                     0803    62 .equ Key_P            ,#0x0803
                     1003    63 .equ Key_SemiColon    ,#0x1003
                     2003    64 .equ Key_Colon        ,#0x2003
                     4003    65 .equ Key_Slash        ,#0x4003
                     8003    66 .equ Key_Dot          ,#0x8003
                             67 ;; Matrix Line 0x04
                     0104    68 .equ Key_0            ,#0x0104
                     0204    69 .equ Key_9            ,#0x0204
                     0404    70 .equ Key_O            ,#0x0404
                     0804    71 .equ Key_I            ,#0x0804
                     1004    72 .equ Key_L            ,#0x1004
                     2004    73 .equ Key_K            ,#0x2004
                     4004    74 .equ Key_M            ,#0x4004
                     8004    75 .equ Key_Comma        ,#0x8004
                             76 ;; Matrix Line 0x05
                     0105    77 .equ Key_8            ,#0x0105
                     0205    78 .equ Key_7            ,#0x0205
                     0405    79 .equ Key_U            ,#0x0405
                     0805    80 .equ Key_Y            ,#0x0805
                     1005    81 .equ Key_H            ,#0x1005
                     2005    82 .equ Key_J            ,#0x2005
                     4005    83 .equ Key_N            ,#0x4005
                     8005    84 .equ Key_Space        ,#0x8005
                             85 ;; Matrix Line 0x06
                     0106    86 .equ Key_6            ,#0x0106
                     0106    87 .equ Joy1_Up          ,#0x0106
                     0206    88 .equ Key_5            ,#0x0206
                     0206    89 .equ Joy1_Down        ,#0x0206
                     0406    90 .equ Key_R            ,#0x0406
                     0406    91 .equ Joy1_Left        ,#0x0406
                     0806    92 .equ Key_T            ,#0x0806
                     0806    93 .equ Joy1_Right       ,#0x0806
                     1006    94 .equ Key_G            ,#0x1006
                     1006    95 .equ Joy1_Fire1       ,#0x1006
                     2006    96 .equ Key_F            ,#0x2006
                     2006    97 .equ Joy1_Fire2       ,#0x2006
                     4006    98 .equ Key_B            ,#0x4006
                     4006    99 .equ Joy1_Fire3       ,#0x4006
                     8006   100 .equ Key_V            ,#0x8006
                            101 ;; Matrix Line 0x07
                     0107   102 .equ Key_4            ,#0x0107
                     0207   103 .equ Key_3            ,#0x0207
                     0407   104 .equ Key_E            ,#0x0407
                     0807   105 .equ Key_W            ,#0x0807
                     1007   106 .equ Key_S            ,#0x1007
                     2007   107 .equ Key_D            ,#0x2007
                     4007   108 .equ Key_C            ,#0x4007
                     8007   109 .equ Key_X            ,#0x8007
ASxxxx Assembler V02.00 + NoICE + SDCC mods  (Zilog Z80 / Hitachi HD64180), page 9.
Hexadecimal [16-Bits]



                            110 ;; Matrix Line 0x08
                     0108   111 .equ Key_1            ,#0x0108
                     0208   112 .equ Key_2            ,#0x0208
                     0408   113 .equ Key_Esc          ,#0x0408
                     0808   114 .equ Key_Q            ,#0x0808
                     1008   115 .equ Key_Tab          ,#0x1008
                     2008   116 .equ Key_A            ,#0x2008
                     4008   117 .equ Key_CapsLock     ,#0x4008
                     8008   118 .equ Key_Z            ,#0x8008
                            119 ;; Matrix Line 0x09
                     0109   120 .equ Joy0_Up          ,#0x0109
                     0209   121 .equ Joy0_Down        ,#0x0209
                     0409   122 .equ Joy0_Left        ,#0x0409
                     0809   123 .equ Joy0_Right       ,#0x0809
                     1009   124 .equ Joy0_Fire1       ,#0x1009
                     2009   125 .equ Joy0_Fire2       ,#0x2009
                     4009   126 .equ Joy0_Fire3       ,#0x4009
                     8009   127 .equ Key_Del          ,#0x8009
ASxxxx Assembler V02.00 + NoICE + SDCC mods  (Zilog Z80 / Hitachi HD64180), page 10.
Hexadecimal [16-Bits]



                             10 .include "sprites.h.s"
                              1 .globl _sprite_palette
                              2 
                              3 .globl _sprite_robot_1_0
                              4 .globl _sprite_robot_1_1
                              5 
                              6 .globl _sprite_robot_2_0
                              7 .globl _sprite_robot_2_1
                              8 
                              9 .globl _sprite_frisbee_1_0
                             10 .globl _sprite_frisbee_1_1
                             11 
                             12 	
                             13 ;; ":"
                             14 .globl _sprite_points
                             15 ;; "0, 1, 2, 3, 4, 5, 6, 7, 8, 9"
                             16 .globl _sprite_numbers_09
                             17 .globl _sprite_numbers_08
                             18 .globl _sprite_numbers_07
                             19 .globl _sprite_numbers_06
                             20 .globl _sprite_numbers_05
                             21 .globl _sprite_numbers_04
                             22 .globl _sprite_numbers_03
                             23 .globl _sprite_numbers_02
                             24 .globl _sprite_numbers_01
                             25 .globl _sprite_numbers_00
ASxxxx Assembler V02.00 + NoICE + SDCC mods  (Zilog Z80 / Hitachi HD64180), page 11.
Hexadecimal [16-Bits]



                             11 .globl _moveIA
                             12 
                             13 ;; ====================================
                             14 ;; ====================================
                             15 ;; PRIVATE DATA
                             16 ;; ====================================
                             17 ;; ====================================
                             18 	
                             19 ;; ====================================
                             20 ;; ====================================
                             21 ;; PUBLIC FUNCTIONS
                             22 ;; ====================================
                             23 ;; ====================================
   000A                      24 player_erase::
   000A DD 21 00 00   [14]   25 	ld 	ix, #player_data
   000E CD 00 00      [17]   26 	call 	entityErase		;; Erase player
   0011 DD 21 00 00   [14]   27 	ld 	ix, #enemy_data
   0015 CD 00 00      [17]   28 	call 	entityErase		;; Erase enemy
                             29 
   0018 C9            [10]   30 	ret
                             31 
                             32 ;; =========================================
                             33 ;; Actualiza el estado del player recibido
                             34 ;; 	en IX
                             35 ;; Entrada:
                             36 ;;	IX => Pointer to player data
                             37 ;; Modifica: AF, BC, DE, HL, IX
                             38 ;; =========================================
   0019                      39 player_update::
                             40 
   0019 DD 7E 1A      [19]   41 	ld	a, Ent_id(ix)
   001C FE 02         [ 7]   42 	cp	#2
   001E 28 09         [12]   43 	jr	z, check_IA		;; Ent_id == 2? check IA
   0020 FE 04         [ 7]   44 	cp	#4
   0022 28 05         [12]   45 	jr	z, check_IA		;; Ent_id == 4? check IA
                             46 		;; check input
   0024 CD A7 08      [17]   47 		call checkUserInput
   0027 18 03         [12]   48 		jr continue_updating
                             49 
   0029                      50 	check_IA:
   0029 CD 17 08      [17]   51 		call move_IA
                             52 
   002C                      53 	continue_updating:
                             54 
   002C CD 00 00      [17]   55 	call entityUpdatePhysics
   002F CD 00 00      [17]   56 	call entityUpdatePosition
   0032 CD 7C 08      [17]   57 	call checkCenterCrossing
                             58 	
   0035 C9            [10]   59 	ret
                             60 
                             61 ;; ====================================
                             62 ;; ====================================
                             63 ;; PRIVATE FUNCTIONS
                             64 ;; ====================================
                             65 ;; ====================================
ASxxxx Assembler V02.00 + NoICE + SDCC mods  (Zilog Z80 / Hitachi HD64180), page 12.
Hexadecimal [16-Bits]



                             66 
                             67 ;; =============================================
                             68 ;; Actualiza el sprite que se tiene que
                             69 ;; 	dibujar en este frame
                             70 ;; Entrada:
                             71 ;;	IX <= Pointer to player data
                             72 ;; Modifica: 
                             73 ;; Devuelve:
                             74 ;; 	A => 1 that state have to update physics
                             75 ;;	  => 0 that state not update physics
                             76 ;; =============================================
   0036                      77 update_player_animation::
   0036 CD 3E 00      [17]   78 	call 	animation_delta
   0039 DD 36 16 FF   [19]   79 	ld 	Ent_signal(ix), #-1
   003D C9            [10]   80 	ret
                             81 
                             82 ;; =========================================
                             83 ;; Determina el siguiente estado de
                             84 ;;	la entidad
                             85 ;; Entrada:
                             86 ;;	IX <= Pointer to player data
                             87 ;; =========================================
   003E                      88 animation_delta:
   003E DD 7E 14      [19]   89 	ld	a, Ent_state(ix)
                             90 
   0041 FE 00         [ 7]   91 	cp	#0
   0043 20 04         [12]   92 	jr	nz, not_zero
                             93 		;; STATE 0  ;;
   0045 CD B2 01      [17]   94 		call origin_state
   0048 C9            [10]   95 		ret
   0049                      96 	not_zero:
   0049 FE 01         [ 7]   97 	cp	#1
   004B 20 04         [12]   98 	jr	nz, not_one
                             99 		;; STATE 1 - Step up first state ;;
   004D CD 7D 02      [17]  100 		call stepUp1_state
   0050 C9            [10]  101 		ret
   0051                     102 	not_one:
   0051 FE 02         [ 7]  103 	cp	#2
   0053 20 04         [12]  104 	jr	nz, not_two
                            105 		;; STATE 2 - Step down first state ;;
   0055 CD 01 03      [17]  106 		call stepDown1_state
   0058 C9            [10]  107 		ret
   0059                     108 	not_two:
   0059 FE 03         [ 7]  109 	cp	#3
   005B 20 04         [12]  110 	jr	nz, not_three
                            111 		;; STATE 3 - Step right first state ;;
   005D CD 81 03      [17]  112 		call stepRight1_state
   0060 C9            [10]  113 		ret
   0061                     114 	not_three:
   0061 FE 04         [ 7]  115 	cp	#4
   0063 20 04         [12]  116 	jr	nz, not_four
                            117 		;; STATE 4 - Step left first state ;;
   0065 CD 01 04      [17]  118 		call stepLeft1_state
   0068 C9            [10]  119 		ret
   0069                     120 	not_four:
ASxxxx Assembler V02.00 + NoICE + SDCC mods  (Zilog Z80 / Hitachi HD64180), page 13.
Hexadecimal [16-Bits]



   0069 FE 05         [ 7]  121 	cp	#5
   006B 20 04         [12]  122 	jr	nz, not_five
                            123 		;; STATE 5 - Step up-right first state ;;
   006D CD 81 04      [17]  124 		call stepUpRight1_state
   0070 C9            [10]  125 		ret
   0071                     126 	not_five:
   0071 FE 06         [ 7]  127 	cp	#6
   0073 20 04         [12]  128 	jr	nz, not_six
                            129 		;; STATE 6 - Step up-left first state ;;
   0075 CD 01 05      [17]  130 		call stepUpLeft1_state
   0078 C9            [10]  131 		ret
   0079                     132 	not_six:
   0079 FE 07         [ 7]  133 	cp	#7
   007B 20 04         [12]  134 	jr	nz, not_seven
                            135 		;; STATE 7 - Step down-right first state ;;
   007D CD 81 05      [17]  136 		call stepDownRight1_state
   0080 C9            [10]  137 		ret
   0081                     138 	not_seven:
   0081 FE 08         [ 7]  139 	cp	#8
   0083 20 04         [12]  140 	jr	nz, not_eight
                            141 		;; STATE 8 - Step down-left first state ;;
   0085 CD 01 06      [17]  142 		call stepDownLeft1_state
   0088 C9            [10]  143 		ret
   0089                     144 	not_eight:
   0089 FE 09         [ 7]  145 	cp	#9
   008B 20 04         [12]  146 	jr	nz, not_nine
                            147 		;; STATE 9 - Throwing up - first ;;
   008D CD F8 06      [17]  148 		call throwUp1_state
   0090 C9            [10]  149 		ret
   0091                     150 	not_nine:
   0091 FE 0A         [ 7]  151 	cp	#10
   0093 20 04         [12]  152 	jr	nz, not_ten
                            153 		;; STATE 10 - Throwing up ;;
   0095 CD 09 07      [17]  154 		call throwUp2_state
   0098 C9            [10]  155 		ret
   0099                     156 	not_ten:
   0099 FE 0B         [ 7]  157 	cp	#11
   009B 20 04         [12]  158 	jr	nz, not_eleven
                            159 		;; STATE 11 - Throwing up ;;
   009D CD 1A 07      [17]  160 		call throwUp3_state
   00A0 C9            [10]  161 		ret
   00A1                     162 	not_eleven:
   00A1 FE 0C         [ 7]  163 	cp	#12
   00A3 20 04         [12]  164 	jr	nz, not_twelve
                            165 		;; STATE 12 - Throwing up ;;
   00A5 CD 2B 07      [17]  166 		call throwUp4_state
   00A8 C9            [10]  167 		ret
   00A9                     168 	not_twelve:
   00A9 FE 0D         [ 7]  169 	cp	#13
   00AB 20 04         [12]  170 	jr	nz, not_thirteen
                            171 		;; STATE 13 - Throwing up ;;
   00AD CD 3C 07      [17]  172 		call throwUp5_state
   00B0 C9            [10]  173 		ret
   00B1                     174 	not_thirteen:
   00B1 FE 0E         [ 7]  175 	cp	#14
ASxxxx Assembler V02.00 + NoICE + SDCC mods  (Zilog Z80 / Hitachi HD64180), page 14.
Hexadecimal [16-Bits]



   00B3 20 04         [12]  176 	jr	nz, not_fourteen
                            177 		;; STATE 14 - Throwing up ;;
   00B5 CD 4D 07      [17]  178 		call throwUp6_state
   00B8 C9            [10]  179 		ret
   00B9                     180 	not_fourteen:
   00B9 FE 0F         [ 7]  181 	cp	#15
   00BB 20 04         [12]  182 	jr	nz, not_fiveteen
                            183 		;; STATE 15 - Throwing up - last ;;
   00BD CD 5E 07      [17]  184 		call throwUp7_state
   00C0 C9            [10]  185 		ret
   00C1                     186 	not_fiveteen:
   00C1 FE 10         [ 7]  187 	cp	#16
   00C3 20 04         [12]  188 	jr	nz, not_sixteen
                            189 		;; STATE 16 - Throwing Down - first ;;
   00C5 CD 81 06      [17]  190 		call throwDown1_state
   00C8 C9            [10]  191 		ret
   00C9                     192 	not_sixteen:
   00C9 FE 11         [ 7]  193 	cp	#17
   00CB 20 04         [12]  194 	jr	nz, not_seventeen
                            195 		;; STATE 17 - Throwing Down ;;
   00CD CD 92 06      [17]  196 		call throwDown2_state
   00D0 C9            [10]  197 		ret
   00D1                     198 	not_seventeen:
   00D1 FE 12         [ 7]  199 	cp	#18
   00D3 20 04         [12]  200 	jr	nz, not_eighteen
                            201 		;; STATE 18 - Throwing Down ;;
   00D5 CD A3 06      [17]  202 		call throwDown3_state
   00D8 C9            [10]  203 		ret
   00D9                     204 	not_eighteen:
   00D9 FE 13         [ 7]  205 	cp	#19
   00DB 20 04         [12]  206 	jr	nz, not_nineteen
                            207 		;; STATE 19 - Throwing Down ;;
   00DD CD B4 06      [17]  208 		call throwDown4_state
   00E0 C9            [10]  209 		ret
   00E1                     210 	not_nineteen:
   00E1 FE 14         [ 7]  211 	cp	#20
   00E3 20 04         [12]  212 	jr	nz, not_twenty
                            213 		;; STATE 20 - Throwing Down ;;
   00E5 CD C5 06      [17]  214 		call throwDown5_state
   00E8 C9            [10]  215 		ret
   00E9                     216 	not_twenty:
   00E9 FE 15         [ 7]  217 	cp	#21
   00EB 20 04         [12]  218 	jr	nz, not_twenty_one
                            219 		;; STATE 21 - Throwing Down ;;
   00ED CD D6 06      [17]  220 		call throwDown6_state
   00F0 C9            [10]  221 		ret
   00F1                     222 	not_twenty_one:
   00F1 FE 16         [ 7]  223 	cp	#22
   00F3 20 04         [12]  224 	jr	nz, not_twenty_two
                            225 		;; STATE 22 - Throwing Down - last ;;
   00F5 CD E7 06      [17]  226 		call throwDown7_state
   00F8 C9            [10]  227 		ret
   00F9                     228 	not_twenty_two:
   00F9 FE 17         [ 7]  229 	cp	#23
   00FB 20 04         [12]  230 	jr	nz, not_twenty_three
ASxxxx Assembler V02.00 + NoICE + SDCC mods  (Zilog Z80 / Hitachi HD64180), page 15.
Hexadecimal [16-Bits]



                            231 		;; STATE 23 - Throwing straight - first ;;
   00FD CD 6F 07      [17]  232 		call throwStraight1_state
   0100 C9            [10]  233 		ret
   0101                     234 	not_twenty_three:
   0101 FE 18         [ 7]  235 	cp	#24
   0103 20 04         [12]  236 	jr	nz, not_twenty_four
                            237 		;; STATE 24 - Throwing straight ;;
   0105 CD 80 07      [17]  238 		call throwStraight2_state
   0108 C9            [10]  239 		ret
   0109                     240 	not_twenty_four:
   0109 FE 19         [ 7]  241 	cp	#25
   010B 20 04         [12]  242 	jr	nz, not_twenty_five
                            243 		;; STATE 25 - Throwing straight ;;
   010D CD 91 07      [17]  244 		call throwStraight3_state
   0110 C9            [10]  245 		ret
   0111                     246 	not_twenty_five:
   0111 FE 1A         [ 7]  247 	cp	#26
   0113 20 04         [12]  248 	jr	nz, not_twenty_six
                            249 		;; STATE 26 - Throwing straight ;;
   0115 CD A2 07      [17]  250 		call throwStraight4_state
   0118 C9            [10]  251 		ret
   0119                     252 	not_twenty_six:
   0119 FE 1B         [ 7]  253 	cp	#27
   011B 20 04         [12]  254 	jr	nz, not_twenty_seven
                            255 		;; STATE 27 - Throwing straight ;;
   011D CD B3 07      [17]  256 		call throwStraight5_state
   0120 C9            [10]  257 		ret
   0121                     258 	not_twenty_seven:
   0121 FE 1C         [ 7]  259 	cp	#28
   0123 20 04         [12]  260 	jr	nz, not_twenty_eight
                            261 		;; STATE 28 - Throwing straight ;;
   0125 CD C4 07      [17]  262 		call throwStraight6_state
   0128 C9            [10]  263 		ret
   0129                     264 	not_twenty_eight:
   0129 FE 1D         [ 7]  265 	cp	#29
   012B 20 04         [12]  266 	jr	nz, not_twenty_nine
                            267 		;; STATE 29 - Throwing straight - last ;;
   012D CD D5 07      [17]  268 		call throwStraight7_state
   0130 C9            [10]  269 		ret
   0131                     270 	not_twenty_nine:
   0131 FE 1E         [ 7]  271 	cp	#30
   0133 20 04         [12]  272 	jr	nz, not_thirty
                            273 		;; STATE 30 - Step up second state ;;
   0135 CD A2 02      [17]  274 		call stepUp2_state
   0138 C9            [10]  275 		ret
   0139                     276 	not_thirty:
   0139 FE 1F         [ 7]  277 	cp	#31
   013B 20 04         [12]  278 	jr	nz, not_thirty_one
                            279 		;; STATE 31 - Step up third state ;;
   013D CD D8 02      [17]  280 		call stepUp3_state
   0140 C9            [10]  281 		ret
   0141                     282 	not_thirty_one:
   0141 FE 20         [ 7]  283 	cp	#32
   0143 20 04         [12]  284 	jr	nz, not_thirty_two
                            285 		;; STATE 31 - Step down second state ;;
ASxxxx Assembler V02.00 + NoICE + SDCC mods  (Zilog Z80 / Hitachi HD64180), page 16.
Hexadecimal [16-Bits]



   0145 CD 26 03      [17]  286 		call stepDown2_state
   0148 C9            [10]  287 		ret
   0149                     288 	not_thirty_two:
   0149 FE 21         [ 7]  289 	cp	#33
   014B 20 04         [12]  290 	jr	nz, not_thirty_three
                            291 		;; STATE 33 - Step down third state ;;
   014D CD 5C 03      [17]  292 		call stepDown3_state
   0150 C9            [10]  293 		ret
   0151                     294 	not_thirty_three:
   0151 FE 22         [ 7]  295 	cp	#34
   0153 20 04         [12]  296 	jr	nz, not_thirty_four
                            297 		;; STATE 34 - Step right second state ;;
   0155 CD A6 03      [17]  298 		call stepRight2_state
   0158 C9            [10]  299 		ret
   0159                     300 	not_thirty_four:
   0159 FE 23         [ 7]  301 	cp	#35
   015B 20 04         [12]  302 	jr	nz, not_thirty_five
                            303 		;; STATE 35 - Step right third state ;;
   015D CD DC 03      [17]  304 		call stepRight3_state
   0160 C9            [10]  305 		ret
   0161                     306 	not_thirty_five:
   0161 FE 24         [ 7]  307 	cp	#36
   0163 20 04         [12]  308 	jr	nz, not_thirty_six
                            309 		;; STATE 36 - Step left second state ;;
   0165 CD 26 04      [17]  310 		call stepLeft2_state
   0168 C9            [10]  311 		ret
   0169                     312 	not_thirty_six:
   0169 FE 25         [ 7]  313 	cp	#37
   016B 20 04         [12]  314 	jr	nz, not_thirty_seven
                            315 		;; STATE 37 - Step left third state ;;
   016D CD 5C 04      [17]  316 		call stepLeft3_state
   0170 C9            [10]  317 		ret
   0171                     318 	not_thirty_seven:
   0171 FE 26         [ 7]  319 	cp	#38
   0173 20 04         [12]  320 	jr	nz, not_thirty_eight
                            321 		;; STATE 38 - Step up-right second state ;;
   0175 CD A6 04      [17]  322 		call stepUpRight2_state
   0178 C9            [10]  323 		ret
   0179                     324 	not_thirty_eight:
   0179 FE 27         [ 7]  325 	cp	#39
   017B 20 04         [12]  326 	jr	nz, not_thirty_nine
                            327 		;; STATE 39 - Step up-right third state ;;
   017D CD DC 04      [17]  328 		call stepUpRight3_state
   0180 C9            [10]  329 		ret
   0181                     330 	not_thirty_nine:
   0181 FE 28         [ 7]  331 	cp	#40
   0183 20 04         [12]  332 	jr	nz, not_fourty
                            333 		;; STATE 40 - Step up-left second state ;;
   0185 CD 26 05      [17]  334 		call stepUpLeft2_state
   0188 C9            [10]  335 		ret
   0189                     336 	not_fourty:
   0189 FE 29         [ 7]  337 	cp	#41
   018B 20 04         [12]  338 	jr	nz, not_fourty_one
                            339 		;; STATE 41 - Step up-left third state ;;
   018D CD 5C 05      [17]  340 		call stepUpLeft3_state
ASxxxx Assembler V02.00 + NoICE + SDCC mods  (Zilog Z80 / Hitachi HD64180), page 17.
Hexadecimal [16-Bits]



   0190 C9            [10]  341 		ret
   0191                     342 	not_fourty_one:
   0191 FE 2A         [ 7]  343 	cp	#42
   0193 20 04         [12]  344 	jr	nz, not_fourty_two
                            345 		;; STATE 42 - Step down-right second state ;;
   0195 CD A6 05      [17]  346 		call stepDownRight2_state
   0198 C9            [10]  347 		ret
   0199                     348 	not_fourty_two:
   0199 FE 2B         [ 7]  349 	cp	#43
   019B 20 04         [12]  350 	jr	nz, not_fourty_three
                            351 		;; STATE 43 - Step down-right third state ;;
   019D CD DC 05      [17]  352 		call stepDownRight3_state
   01A0 C9            [10]  353 		ret
   01A1                     354 	not_fourty_three:
   01A1 FE 2C         [ 7]  355 	cp	#44
   01A3 20 04         [12]  356 	jr	nz, not_fourty_four
                            357 		;; STATE 44 - Step down-left second state ;;
   01A5 CD 26 06      [17]  358 		call stepDownLeft2_state
   01A8 C9            [10]  359 		ret
   01A9                     360 	not_fourty_four:
   01A9 FE 2D         [ 7]  361 	cp	#45
   01AB 20 04         [12]  362 	jr	nz, not_fourty_five
                            363 		;; STATE 45 - Step down-left third state ;;
   01AD CD 5C 06      [17]  364 		call stepDownLeft3_state
   01B0 C9            [10]  365 		ret
   01B1                     366 	not_fourty_five:
                            367 
   01B1 C9            [10]  368 	ret
                            369 
                            370 ;; ======================================
                            371 ;; 		Origin State #0
                            372 ;; Entrada:  IX <= Pointer to player data
                            373 ;; Devuelve: A <= Not Update/Update
                            374 ;; ======================================
   01B2                     375 origin_state:
   01B2 DD 7E 16      [19]  376 	ld	a, Ent_signal(ix)
   01B5 FE 01         [ 7]  377 	cp	#1
   01B7 20 0D         [12]  378 	jr	nz, origin_not_one
   01B9 DD 7E 14      [19]  379 		ld a, Ent_state(ix)	;;
   01BC DD 77 15      [19]  380 		ld Ent_lastState(ix), a	;; LastState <= current state
   01BF DD 36 14 01   [19]  381 		ld Ent_state(ix), #1
   01C3 C3 7A 02      [10]  382 		jp origin_exit
   01C6                     383 	origin_not_one:
   01C6 FE 02         [ 7]  384 	cp	#2
   01C8 20 0D         [12]  385 	jr	nz, origin_not_two
   01CA DD 7E 14      [19]  386 		ld a, Ent_state(ix)	;;
   01CD DD 77 15      [19]  387 		ld Ent_lastState(ix), a	;; LastState <= current state
   01D0 DD 36 14 02   [19]  388 		ld Ent_state(ix), #2
   01D4 C3 7A 02      [10]  389 		jp origin_exit
   01D7                     390 	origin_not_two:
   01D7 FE 03         [ 7]  391 	cp	#3
   01D9 20 0D         [12]  392 	jr	nz, origin_not_three
   01DB DD 7E 14      [19]  393 		ld a, Ent_state(ix)	;;
   01DE DD 77 15      [19]  394 		ld Ent_lastState(ix), a	;; LastState <= current state
   01E1 DD 36 14 03   [19]  395 		ld Ent_state(ix), #3
ASxxxx Assembler V02.00 + NoICE + SDCC mods  (Zilog Z80 / Hitachi HD64180), page 18.
Hexadecimal [16-Bits]



   01E5 C3 7A 02      [10]  396 		jp origin_exit
   01E8                     397 	origin_not_three:
   01E8 FE 04         [ 7]  398 	cp	#4
   01EA 20 0D         [12]  399 	jr	nz, origin_not_four
   01EC DD 7E 14      [19]  400 		ld a, Ent_state(ix)	;;
   01EF DD 77 15      [19]  401 		ld Ent_lastState(ix), a	;; LastState <= current state
   01F2 DD 36 14 04   [19]  402 		ld Ent_state(ix), #4
   01F6 C3 7A 02      [10]  403 		jp origin_exit
   01F9                     404 	origin_not_four:
   01F9 FE 05         [ 7]  405 	cp	#5
   01FB 20 0D         [12]  406 	jr	nz, origin_not_five
   01FD DD 7E 14      [19]  407 		ld a, Ent_state(ix)	;;
   0200 DD 77 15      [19]  408 		ld Ent_lastState(ix), a	;; LastState <= current state
   0203 DD 36 14 05   [19]  409 		ld Ent_state(ix), #5
   0207 C3 7A 02      [10]  410 		jp origin_exit
   020A                     411 	origin_not_five:
   020A FE 06         [ 7]  412 	cp	#6
   020C 20 0D         [12]  413 	jr	nz, origin_not_six
   020E DD 7E 14      [19]  414 		ld a, Ent_state(ix)	;;
   0211 DD 77 15      [19]  415 		ld Ent_lastState(ix), a	;; LastState <= current state
   0214 DD 36 14 06   [19]  416 		ld Ent_state(ix), #6
   0218 C3 7A 02      [10]  417 		jp origin_exit
   021B                     418 	origin_not_six:
   021B FE 07         [ 7]  419 	cp	#7
   021D 20 0D         [12]  420 	jr	nz, origin_not_seven
   021F DD 7E 14      [19]  421 		ld a, Ent_state(ix)	;;
   0222 DD 77 15      [19]  422 		ld Ent_lastState(ix), a	;; LastState <= current state
   0225 DD 36 14 07   [19]  423 		ld Ent_state(ix), #7
   0229 C3 7A 02      [10]  424 		jp origin_exit
   022C                     425 	origin_not_seven:
   022C FE 08         [ 7]  426 	cp	#8
   022E 20 0D         [12]  427 	jr	nz, origin_not_eight
   0230 DD 7E 14      [19]  428 		ld a, Ent_state(ix)	;;
   0233 DD 77 15      [19]  429 		ld Ent_lastState(ix), a	;; LastState <= current state
   0236 DD 36 14 08   [19]  430 		ld Ent_state(ix), #8
   023A C3 7A 02      [10]  431 		jp origin_exit
   023D                     432 	origin_not_eight:
   023D FE 09         [ 7]  433 	cp	#9
   023F 20 0D         [12]  434 	jr	nz, origin_not_nine
   0241 DD 7E 14      [19]  435 		ld a, Ent_state(ix)	;;
   0244 DD 77 15      [19]  436 		ld Ent_lastState(ix), a	;; LastState <= current state
   0247 DD 36 14 10   [19]  437 		ld Ent_state(ix), #16
   024B C3 7A 02      [10]  438 		jp origin_exit
   024E                     439 	origin_not_nine:
   024E FE 0A         [ 7]  440 	cp	#10
   0250 20 0D         [12]  441 	jr	nz, origin_not_ten
   0252 DD 7E 14      [19]  442 		ld a, Ent_state(ix)	;;
   0255 DD 77 15      [19]  443 		ld Ent_lastState(ix), a	;; LastState <= current state
   0258 DD 36 14 09   [19]  444 		ld Ent_state(ix), #9
   025C C3 7A 02      [10]  445 		jp origin_exit
   025F                     446 	origin_not_ten:
   025F FE 0B         [ 7]  447 	cp	#11
   0261 20 0D         [12]  448 	jr	nz, origin_not_eleven
   0263 DD 7E 14      [19]  449 		ld a, Ent_state(ix)	;;
   0266 DD 77 15      [19]  450 		ld Ent_lastState(ix), a	;; LastState <= current state
ASxxxx Assembler V02.00 + NoICE + SDCC mods  (Zilog Z80 / Hitachi HD64180), page 19.
Hexadecimal [16-Bits]



   0269 DD 36 14 17   [19]  451 		ld Ent_state(ix), #23
   026D C3 7A 02      [10]  452 		jp origin_exit
   0270                     453 	origin_not_eleven:
                            454 	;; else
   0270 DD 7E 14      [19]  455 	ld a, Ent_state(ix)	;;
   0273 DD 77 15      [19]  456 	ld Ent_lastState(ix), a	;; LastState <= current state
   0276 DD 36 14 00   [19]  457 	ld Ent_state(ix), #0
                            458 
   027A                     459 	origin_exit:
   027A 3E 01         [ 7]  460 	ld 	a, #1
                            461 
   027C C9            [10]  462 	ret
                            463 
                            464 ;; =======================================
                            465 ;; =======================================
                            466 ;; == 		MOVE UP STATES		==
                            467 ;; =======================================
                            468 ;; =======================================
                            469 
                            470 ;; ======================================
                            471 ;; 		Step up 1 State #1
                            472 ;; Entrada:  IX <= Pointer to player data
                            473 ;; Devuelve: A <= Not Update/Update
                            474 ;; ======================================
   027D                     475 stepUp1_state:
   027D DD 36 17 00   [19]  476 	ld Ent_sprite(ix), #0	;; Next sprite <= 0
   0281 DD 7E 16      [19]  477 	ld	a, Ent_signal(ix)
   0284 FE 01         [ 7]  478 	cp	#1
   0286 20 0D         [12]  479 	jr 	nz, stepUp1_else
                            480 		;; Move up
   0288 DD 7E 14      [19]  481 		ld a, Ent_state(ix)	;;
   028B DD 77 15      [19]  482 		ld Ent_lastState(ix), a	;; LastState <= current state
   028E DD 36 14 1E   [19]  483 		ld Ent_state(ix), #30	;; Next state <= 30
                            484 
   0292 3E 01         [ 7]  485 		ld a, #1		;; A <= Update physics
   0294 C9            [10]  486 		ret
   0295                     487 	stepUp1_else:
                            488 	;; else
   0295 DD 7E 14      [19]  489 	ld a, Ent_state(ix)	;;
   0298 DD 77 15      [19]  490 	ld Ent_lastState(ix), a	;; LastState <= current state
   029B DD 36 14 00   [19]  491 	ld Ent_state(ix), #0	;; Next state <= 0
   029F 3E 01         [ 7]  492 	ld a, #1		;; A <= Update physics
                            493 
   02A1 C9            [10]  494 	ret
                            495 
                            496 
                            497 ;; ======================================
                            498 ;; 		Step up 2 State #30
                            499 ;; Entrada:  IX <= Pointer to player data
                            500 ;; Devuelve: A <= Not Update/Update
                            501 ;; ======================================
   02A2                     502 stepUp2_state:
   02A2 DD 36 17 01   [19]  503 	ld Ent_sprite(ix), #1		;; Next sprite <= 1
   02A6 DD 7E 16      [19]  504 	ld	a, Ent_signal(ix)
   02A9 FE 01         [ 7]  505 	cp	#1
ASxxxx Assembler V02.00 + NoICE + SDCC mods  (Zilog Z80 / Hitachi HD64180), page 20.
Hexadecimal [16-Bits]



   02AB 20 1E         [12]  506 	jr 	nz, stepUp2_else
                            507 		;; Move up
   02AD DD 7E 15      [19]  508 		ld a, Ent_lastState(ix)
   02B0 FE 01         [ 7]  509 		cp #1
   02B2 28 0A         [12]  510 		jr z, goto_state_31
                            511 			;; GO TO 1
   02B4 DD 7E 14      [19]  512 			ld a, Ent_state(ix)	;;
   02B7 DD 77 15      [19]  513 			ld Ent_lastState(ix), a	;; LastState <= current state
   02BA DD 36 14 01   [19]  514 			ld Ent_state(ix), #1	;; Next state <= 1
   02BE                     515 		goto_state_31:
   02BE DD 7E 14      [19]  516 		ld a, Ent_state(ix)	;;
   02C1 DD 77 15      [19]  517 		ld Ent_lastState(ix), a	;; LastState <= current state
   02C4 DD 36 14 1F   [19]  518 		ld Ent_state(ix), #31	;; Next state <= 30
                            519 
   02C8 3E 01         [ 7]  520 		ld a, #1		;; A <= Update physics
   02CA C9            [10]  521 		ret
   02CB                     522 	stepUp2_else:
                            523 	;; else
   02CB DD 7E 14      [19]  524 	ld a, Ent_state(ix)	;;
   02CE DD 77 15      [19]  525 	ld Ent_lastState(ix), a	;; LastState <= current state
   02D1 DD 36 14 00   [19]  526 	ld Ent_state(ix), #0	;; Next state <= 0
   02D5 3E 01         [ 7]  527 	ld a, #1		;; A <= Update physics
   02D7 C9            [10]  528 	ret
                            529 
                            530 
                            531 ;; ======================================
                            532 ;; 		Step up 3 State #31
                            533 ;; Entrada:  IX <= Pointer to player data
                            534 ;; Devuelve: A <= Not Update/Update
                            535 ;; ======================================
   02D8                     536 stepUp3_state:
   02D8 DD 36 17 02   [19]  537 	ld Ent_sprite(ix), #2		;; Next sprite <= 2
   02DC DD 7E 16      [19]  538 	ld	a, Ent_signal(ix)
   02DF FE 01         [ 7]  539 	cp	#1
   02E1 20 11         [12]  540 	jr 	nz, stepUp3_else
                            541 		;; Move up
   02E3 DD 36 17 00   [19]  542 		ld Ent_sprite(ix), #0	;; Next sprite <= 1
   02E7 DD 7E 14      [19]  543 		ld a, Ent_state(ix)	;;
   02EA DD 77 15      [19]  544 		ld Ent_lastState(ix), a	;; LastState <= current state
   02ED DD 36 14 1E   [19]  545 		ld Ent_state(ix), #30	;; Next state <= 30
                            546 
   02F1 3E 01         [ 7]  547 		ld a, #1		;; A <= Update physics
   02F3 C9            [10]  548 		ret
   02F4                     549 	stepUp3_else:
                            550 	;; else
   02F4 DD 7E 14      [19]  551 	ld a, Ent_state(ix)	;;
   02F7 DD 77 15      [19]  552 	ld Ent_lastState(ix), a	;; LastState <= current state
   02FA DD 36 14 00   [19]  553 	ld Ent_state(ix), #0	;; Next state <= 0
   02FE 3E 01         [ 7]  554 	ld a, #1		;; A <= Update physics
   0300 C9            [10]  555 	ret
                            556 
                            557 ;; =======================================
                            558 ;; =======================================
                            559 ;; == 		MOVE DOWN STATES	==
                            560 ;; =======================================
ASxxxx Assembler V02.00 + NoICE + SDCC mods  (Zilog Z80 / Hitachi HD64180), page 21.
Hexadecimal [16-Bits]



                            561 ;; =======================================
                            562 
                            563 ;; ======================================
                            564 ;; 		Step down 1 State #2
                            565 ;; Entrada:  IX <= Pointer to player data
                            566 ;; Devuelve: A <= Not Update/Update
                            567 ;; ======================================
   0301                     568 stepDown1_state:
   0301 DD 36 17 03   [19]  569 	ld Ent_sprite(ix), #3		;; Next sprite <= 3
   0305 DD 7E 16      [19]  570 	ld	a, Ent_signal(ix)
   0308 FE 02         [ 7]  571 	cp	#2
   030A 20 0D         [12]  572 	jr 	nz, stepDown1_else
                            573 		;; Move Down
   030C DD 7E 14      [19]  574 		ld a, Ent_state(ix)	;;
   030F DD 77 15      [19]  575 		ld Ent_lastState(ix), a	;; LastState <= current state
   0312 DD 36 14 20   [19]  576 		ld Ent_state(ix), #32	;; Next state <= 32
                            577 
   0316 3E 01         [ 7]  578 		ld a, #1		;; A <= Update physics
   0318 C9            [10]  579 		ret
   0319                     580 	stepDown1_else:
                            581 	;; else
   0319 DD 7E 14      [19]  582 	ld a, Ent_state(ix)	;;
   031C DD 77 15      [19]  583 	ld Ent_lastState(ix), a	;; LastState <= current state
   031F DD 36 14 00   [19]  584 	ld Ent_state(ix), #0	;; Next state <= 0
   0323 3E 01         [ 7]  585 	ld a, #1		;; A <= Update physics
                            586 
   0325 C9            [10]  587 	ret
                            588 
                            589 
                            590 ;; ======================================
                            591 ;; 	Step down 2 State #32
                            592 ;; Entrada:  IX <= Pointer to player data
                            593 ;; Devuelve: A <= Not Update/Update
                            594 ;; ======================================
   0326                     595 stepDown2_state:
   0326 DD 36 17 04   [19]  596 	ld Ent_sprite(ix), #4	;; Next sprite <= 4
   032A DD 7E 16      [19]  597 	ld	a, Ent_signal(ix)
   032D FE 02         [ 7]  598 	cp	#2
   032F 20 1E         [12]  599 	jr 	nz, stepDown2_else
                            600 		;; Move down
   0331 DD 7E 15      [19]  601 		ld a, Ent_lastState(ix)
   0334 FE 02         [ 7]  602 		cp #2
   0336 28 0A         [12]  603 		jr z, goto_state_33
                            604 			;; GO TO 2
   0338 DD 7E 14      [19]  605 			ld a, Ent_state(ix)	;;
   033B DD 77 15      [19]  606 			ld Ent_lastState(ix), a	;; LastState <= current state
   033E DD 36 14 02   [19]  607 			ld Ent_state(ix), #2	;; Next state <= 2
   0342                     608 		goto_state_33:
   0342 DD 7E 14      [19]  609 		ld a, Ent_state(ix)	;;
   0345 DD 77 15      [19]  610 		ld Ent_lastState(ix), a	;; LastState <= current state
   0348 DD 36 14 21   [19]  611 		ld Ent_state(ix), #33	;; Next state <= 33
                            612 
   034C 3E 01         [ 7]  613 		ld a, #1		;; A <= Update physics
   034E C9            [10]  614 		ret
   034F                     615 	stepDown2_else:
ASxxxx Assembler V02.00 + NoICE + SDCC mods  (Zilog Z80 / Hitachi HD64180), page 22.
Hexadecimal [16-Bits]



                            616 	;; else
   034F DD 7E 14      [19]  617 	ld a, Ent_state(ix)	;;
   0352 DD 77 15      [19]  618 	ld Ent_lastState(ix), a	;; LastState <= current state
   0355 DD 36 14 00   [19]  619 	ld Ent_state(ix), #0	;; Next state <= 0
   0359 3E 01         [ 7]  620 	ld a, #1		;; A <= Update physics
   035B C9            [10]  621 	ret
                            622 
                            623 
                            624 ;; ======================================
                            625 ;; 	Step down 3 State #33
                            626 ;; Entrada:  IX <= Pointer to player data
                            627 ;; Devuelve: A <= Not Update/Update
                            628 ;; ======================================
   035C                     629 stepDown3_state:
   035C DD 36 17 05   [19]  630 	ld Ent_sprite(ix), #5	;; Next sprite <= 5
   0360 DD 7E 16      [19]  631 	ld	a, Ent_signal(ix)
   0363 FE 02         [ 7]  632 	cp	#2
   0365 20 0D         [12]  633 	jr 	nz, stepDown3_else
                            634 		;; Move down
   0367 DD 7E 14      [19]  635 		ld a, Ent_state(ix)	;;
   036A DD 77 15      [19]  636 		ld Ent_lastState(ix), a	;; LastState <= current state
   036D DD 36 14 20   [19]  637 		ld Ent_state(ix), #32	;; Next state <= 32
                            638 
   0371 3E 01         [ 7]  639 		ld a, #1		;; A <= Update physics
   0373 C9            [10]  640 		ret
   0374                     641 	stepDown3_else:
                            642 	;; else
   0374 DD 7E 14      [19]  643 	ld a, Ent_state(ix)	;;
   0377 DD 77 15      [19]  644 	ld Ent_lastState(ix), a	;; LastState <= current state
   037A DD 36 14 00   [19]  645 	ld Ent_state(ix), #0	;; Next state <= 0
   037E 3E 01         [ 7]  646 	ld a, #1		;; A <= Update physics
   0380 C9            [10]  647 	ret
                            648 
                            649 
                            650 ;; =======================================
                            651 ;; =======================================
                            652 ;; == 		MOVE RIGHT STATES	==
                            653 ;; =======================================
                            654 ;; =======================================
                            655 
                            656 ;; ======================================
                            657 ;; 	Step Right 1 State #3
                            658 ;; Entrada:  IX <= Pointer to player data
                            659 ;; Devuelve: A <= Not Update/Update
                            660 ;; ======================================
   0381                     661 stepRight1_state:
   0381 DD 36 17 06   [19]  662 	ld Ent_sprite(ix), #6		;; Next sprite <= 6
   0385 DD 7E 16      [19]  663 	ld	a, Ent_signal(ix)
   0388 FE 03         [ 7]  664 	cp	#3
   038A 20 0D         [12]  665 	jr 	nz, stepRight1_else
                            666 		;; Move Right
   038C DD 7E 14      [19]  667 		ld a, Ent_state(ix)	;;
   038F DD 77 15      [19]  668 		ld Ent_lastState(ix), a	;; LastState <= current state
   0392 DD 36 14 22   [19]  669 		ld Ent_state(ix), #34	;; Next state <= 34
                            670 
ASxxxx Assembler V02.00 + NoICE + SDCC mods  (Zilog Z80 / Hitachi HD64180), page 23.
Hexadecimal [16-Bits]



   0396 3E 01         [ 7]  671 		ld a, #1		;; A <= Update physics
   0398 C9            [10]  672 		ret
   0399                     673 	stepRight1_else:
                            674 	;; else
   0399 DD 7E 14      [19]  675 	ld a, Ent_state(ix)	;;
   039C DD 77 15      [19]  676 	ld Ent_lastState(ix), a	;; LastState <= current state
   039F DD 36 14 00   [19]  677 	ld Ent_state(ix), #0	;; Next state <= 0
   03A3 3E 01         [ 7]  678 	ld a, #1		;; A <= Update physics
   03A5 C9            [10]  679 	ret
                            680 
                            681 
                            682 ;; ======================================
                            683 ;; 	Step Right 2 State #34
                            684 ;; Entrada:  IX <= Pointer to player data
                            685 ;; Devuelve: A <= Not Update/Update
                            686 ;; ======================================
   03A6                     687 stepRight2_state:
   03A6 DD 36 17 07   [19]  688 	ld Ent_sprite(ix), #7			;; Next sprite <= 7
   03AA DD 7E 16      [19]  689 	ld	a, Ent_signal(ix)
   03AD FE 03         [ 7]  690 	cp	#3
   03AF 20 1E         [12]  691 	jr 	nz, stepRight2_else
                            692 		;; Move Right
   03B1 DD 7E 15      [19]  693 		ld a, Ent_lastState(ix)
   03B4 FE 03         [ 7]  694 		cp #3
   03B6 28 0A         [12]  695 		jr z, goto_state_35
                            696 			;; GO TO 3
   03B8 DD 7E 14      [19]  697 			ld a, Ent_state(ix)	;;
   03BB DD 77 15      [19]  698 			ld Ent_lastState(ix), a	;; LastState <= current state
   03BE DD 36 14 03   [19]  699 			ld Ent_state(ix), #3	;; Next state <= 3
   03C2                     700 		goto_state_35:
   03C2 DD 7E 14      [19]  701 		ld a, Ent_state(ix)	;;
   03C5 DD 77 15      [19]  702 		ld Ent_lastState(ix), a	;; LastState <= current state
   03C8 DD 36 14 23   [19]  703 		ld Ent_state(ix), #35	;; Next state <= 35
                            704 
   03CC 3E 01         [ 7]  705 		ld a, #1		;; A <= Update physics
   03CE C9            [10]  706 		ret
   03CF                     707 	stepRight2_else:
                            708 	;; else
   03CF DD 7E 14      [19]  709 	ld a, Ent_state(ix)	;;
   03D2 DD 77 15      [19]  710 	ld Ent_lastState(ix), a	;; LastState <= current state
   03D5 DD 36 14 00   [19]  711 	ld Ent_state(ix), #0	;; Next state <= 0
   03D9 3E 01         [ 7]  712 	ld a, #1		;; A <= Update physics
   03DB C9            [10]  713 	ret
                            714 
                            715 
                            716 ;; ======================================
                            717 ;; 	Step Right 3 State #35
                            718 ;; Entrada:  IX <= Pointer to player data
                            719 ;; Devuelve: A <= Not Update/Update
                            720 ;; ======================================
   03DC                     721 stepRight3_state:
   03DC DD 36 17 08   [19]  722 	ld Ent_sprite(ix), #8		;; Next sprite <= 8
   03E0 DD 7E 16      [19]  723 	ld	a, Ent_signal(ix)
   03E3 FE 03         [ 7]  724 	cp	#3
   03E5 20 0D         [12]  725 	jr 	nz, stepRight3_else
ASxxxx Assembler V02.00 + NoICE + SDCC mods  (Zilog Z80 / Hitachi HD64180), page 24.
Hexadecimal [16-Bits]



                            726 		;; Move Right
   03E7 DD 7E 14      [19]  727 		ld a, Ent_state(ix)	;;
   03EA DD 77 15      [19]  728 		ld Ent_lastState(ix), a	;; LastState <= current state
   03ED DD 36 14 22   [19]  729 		ld Ent_state(ix), #34	;; Next state <= 34
                            730 
   03F1 3E 01         [ 7]  731 		ld a, #1		;; A <= Update physics
   03F3 C9            [10]  732 		ret
   03F4                     733 	stepRight3_else:
                            734 	;; else
   03F4 DD 7E 14      [19]  735 	ld a, Ent_state(ix)	;;
   03F7 DD 77 15      [19]  736 	ld Ent_lastState(ix), a	;; LastState <= current state
   03FA DD 36 14 00   [19]  737 	ld Ent_state(ix), #0	;; Next state <= 0
   03FE 3E 01         [ 7]  738 	ld a, #1		;; A <= Update physics
   0400 C9            [10]  739 	ret
                            740 
                            741 
                            742 ;; =======================================
                            743 ;; =======================================
                            744 ;; == 		MOVE LEFT STATES	==
                            745 ;; =======================================
                            746 ;; =======================================
                            747 
                            748 ;; ======================================
                            749 ;; 	Step Left 1 State #4
                            750 ;; Entrada:  IX <= Pointer to player data
                            751 ;; Devuelve: A <= Not Update/Update
                            752 ;; ======================================
   0401                     753 stepLeft1_state:
   0401 DD 36 17 09   [19]  754 	ld Ent_sprite(ix), #9		;; Next sprite <= 9
   0405 DD 7E 16      [19]  755 	ld	a, Ent_signal(ix)
   0408 FE 04         [ 7]  756 	cp	#4
   040A 20 0D         [12]  757 	jr 	nz, stepLeft1_else
                            758 		;; Move Left
   040C DD 7E 14      [19]  759 		ld a, Ent_state(ix)	;;
   040F DD 77 15      [19]  760 		ld Ent_lastState(ix), a	;; LastState <= current state
   0412 DD 36 14 24   [19]  761 		ld Ent_state(ix), #36	;; Next state <= 36
                            762 
   0416 3E 01         [ 7]  763 		ld a, #1		;; A <= Update physics
   0418 C9            [10]  764 		ret
   0419                     765 	stepLeft1_else:
                            766 	;; else
   0419 DD 7E 14      [19]  767 	ld a, Ent_state(ix)	;;
   041C DD 77 15      [19]  768 	ld Ent_lastState(ix), a	;; LastState <= current state
   041F DD 36 14 00   [19]  769 	ld Ent_state(ix), #0	;; Next state <= 0
   0423 3E 01         [ 7]  770 	ld a, #1		;; A <= Update physics
   0425 C9            [10]  771 	ret
                            772 
                            773 
                            774 ;; ======================================
                            775 ;; 	Step Left 2 State #36
                            776 ;; Entrada:  IX <= Pointer to player data
                            777 ;; Devuelve: A <= Not Update/Update
                            778 ;; ======================================
   0426                     779 stepLeft2_state:
   0426 DD 36 17 0A   [19]  780 	ld Ent_sprite(ix), #10			;; Next sprite <= 10
ASxxxx Assembler V02.00 + NoICE + SDCC mods  (Zilog Z80 / Hitachi HD64180), page 25.
Hexadecimal [16-Bits]



   042A DD 7E 16      [19]  781 	ld	a, Ent_signal(ix)
   042D FE 04         [ 7]  782 	cp	#4
   042F 20 1E         [12]  783 	jr 	nz, stepLeft2_else
                            784 		;; Move Left
   0431 DD 7E 15      [19]  785 		ld a, Ent_lastState(ix)
   0434 FE 03         [ 7]  786 		cp #3
   0436 28 0A         [12]  787 		jr z, goto_state_37
                            788 			;; GO TO 4
   0438 DD 7E 14      [19]  789 			ld a, Ent_state(ix)	;;
   043B DD 77 15      [19]  790 			ld Ent_lastState(ix), a	;; LastState <= current state
   043E DD 36 14 04   [19]  791 			ld Ent_state(ix), #4	;; Next state <= 4
   0442                     792 		goto_state_37:
   0442 DD 7E 14      [19]  793 		ld a, Ent_state(ix)	;;
   0445 DD 77 15      [19]  794 		ld Ent_lastState(ix), a	;; LastState <= current state
   0448 DD 36 14 25   [19]  795 		ld Ent_state(ix), #37	;; Next state <= 37
                            796 
   044C 3E 01         [ 7]  797 		ld a, #1		;; A <= Update physics
   044E C9            [10]  798 		ret
   044F                     799 	stepLeft2_else:
                            800 	;; else
   044F DD 7E 14      [19]  801 	ld a, Ent_state(ix)	;;
   0452 DD 77 15      [19]  802 	ld Ent_lastState(ix), a	;; LastState <= current state
   0455 DD 36 14 00   [19]  803 	ld Ent_state(ix), #0	;; Next state <= 0
   0459 3E 01         [ 7]  804 	ld a, #1		;; A <= Update physics
   045B C9            [10]  805 	ret
                            806 
                            807 
                            808 ;; ======================================
                            809 ;; 	Step Left 3 State #37
                            810 ;; Entrada:  IX <= Pointer to player data
                            811 ;; Devuelve: A <= Not Update/Update
                            812 ;; ======================================
   045C                     813 stepLeft3_state:
   045C DD 36 17 0B   [19]  814 	ld Ent_sprite(ix), #11		;; Next sprite <= 11
   0460 DD 7E 16      [19]  815 	ld	a, Ent_signal(ix)
   0463 FE 04         [ 7]  816 	cp	#4
   0465 20 0D         [12]  817 	jr 	nz, stepLeft3_else
                            818 		;; Move Left
   0467 DD 7E 14      [19]  819 		ld a, Ent_state(ix)	;;
   046A DD 77 15      [19]  820 		ld Ent_lastState(ix), a	;; LastState <= current state
   046D DD 36 14 24   [19]  821 		ld Ent_state(ix), #36	;; Next state <= 36
                            822 
   0471 3E 01         [ 7]  823 		ld a, #1		;; A <= Update physics
   0473 C9            [10]  824 		ret
   0474                     825 	stepLeft3_else:
                            826 	;; else
   0474 DD 7E 14      [19]  827 	ld a, Ent_state(ix)	;;
   0477 DD 77 15      [19]  828 	ld Ent_lastState(ix), a	;; LastState <= current state
   047A DD 36 14 00   [19]  829 	ld Ent_state(ix), #0	;; Next state <= 0
   047E 3E 01         [ 7]  830 	ld a, #1		;; A <= Update physics
   0480 C9            [10]  831 	ret
                            832 
                            833 
                            834 ;; =======================================
                            835 ;; =======================================
ASxxxx Assembler V02.00 + NoICE + SDCC mods  (Zilog Z80 / Hitachi HD64180), page 26.
Hexadecimal [16-Bits]



                            836 ;; == 	    MOVE UP RIGHT STATES	==
                            837 ;; =======================================
                            838 ;; =======================================
                            839 
                            840 ;; ======================================
                            841 ;; 	Step UpRight 1 State #5
                            842 ;; Entrada:  IX <= Pointer to player data
                            843 ;; Devuelve: A <= Not Update/Update
                            844 ;; ======================================
   0481                     845 stepUpRight1_state:
   0481 DD 36 17 0C   [19]  846 	ld Ent_sprite(ix), #12		;; Next sprite <= 12
   0485 DD 7E 16      [19]  847 	ld	a, Ent_signal(ix)
   0488 FE 05         [ 7]  848 	cp	#5
   048A 20 0D         [12]  849 	jr 	nz, stepUpRight1_else
                            850 		;; Move UpRight
   048C DD 7E 14      [19]  851 		ld a, Ent_state(ix)	;;
   048F DD 77 15      [19]  852 		ld Ent_lastState(ix), a	;; LastState <= current state
   0492 DD 36 14 26   [19]  853 		ld Ent_state(ix), #38	;; Next state <= 38
                            854 
   0496 3E 01         [ 7]  855 		ld a, #1		;; A <= Update physics
   0498 C9            [10]  856 		ret
   0499                     857 	stepUpRight1_else:
                            858 	;; else
   0499 DD 7E 14      [19]  859 	ld a, Ent_state(ix)	;;
   049C DD 77 15      [19]  860 	ld Ent_lastState(ix), a	;; LastState <= current state
   049F DD 36 14 00   [19]  861 	ld Ent_state(ix), #0	;; Next state <= 0
   04A3 3E 01         [ 7]  862 	ld a, #1		;; A <= Update physics
   04A5 C9            [10]  863 	ret
                            864 
                            865 
                            866 ;; ======================================
                            867 ;; 	Step UpRight 2 State #38
                            868 ;; Entrada:  IX <= Pointer to player data
                            869 ;; Devuelve: A <= Not Update/Update
                            870 ;; ======================================
   04A6                     871 stepUpRight2_state:
   04A6 DD 36 17 0D   [19]  872 	ld Ent_sprite(ix), #13			;; Next sprite <= 13
   04AA DD 7E 16      [19]  873 	ld	a, Ent_signal(ix)
   04AD FE 05         [ 7]  874 	cp	#5
   04AF 20 1E         [12]  875 	jr 	nz, stepUpRight2_else
                            876 		;; Move UpRight
   04B1 DD 7E 15      [19]  877 		ld a, Ent_lastState(ix)
   04B4 FE 03         [ 7]  878 		cp #3
   04B6 28 0A         [12]  879 		jr z, goto_state_39
                            880 			;; GO TO 5
   04B8 DD 7E 14      [19]  881 			ld a, Ent_state(ix)	;;
   04BB DD 77 15      [19]  882 			ld Ent_lastState(ix), a	;; LastState <= current state
   04BE DD 36 14 05   [19]  883 			ld Ent_state(ix), #5	;; Next state <= 5
   04C2                     884 		goto_state_39:
   04C2 DD 7E 14      [19]  885 		ld a, Ent_state(ix)	;;
   04C5 DD 77 15      [19]  886 		ld Ent_lastState(ix), a	;; LastState <= current state
   04C8 DD 36 14 27   [19]  887 		ld Ent_state(ix), #39	;; Next state <= 39
                            888 
   04CC 3E 01         [ 7]  889 		ld a, #1		;; A <= Update physics
   04CE C9            [10]  890 		ret
ASxxxx Assembler V02.00 + NoICE + SDCC mods  (Zilog Z80 / Hitachi HD64180), page 27.
Hexadecimal [16-Bits]



   04CF                     891 	stepUpRight2_else:
                            892 	;; else
   04CF DD 7E 14      [19]  893 	ld a, Ent_state(ix)	;;
   04D2 DD 77 15      [19]  894 	ld Ent_lastState(ix), a	;; LastState <= current state
   04D5 DD 36 14 00   [19]  895 	ld Ent_state(ix), #0	;; Next state <= 0
   04D9 3E 01         [ 7]  896 	ld a, #1		;; A <= Update physics
   04DB C9            [10]  897 	ret
                            898 
                            899 
                            900 ;; ======================================
                            901 ;; 	Step UpRight 3 State #39
                            902 ;; Entrada:  IX <= Pointer to player data
                            903 ;; Devuelve: A <= Not Update/Update
                            904 ;; ======================================
   04DC                     905 stepUpRight3_state:
   04DC DD 36 17 0E   [19]  906 	ld Ent_sprite(ix), #14		;; Next sprite <= 14
   04E0 DD 7E 16      [19]  907 	ld	a, Ent_signal(ix)
   04E3 FE 05         [ 7]  908 	cp	#5
   04E5 20 0D         [12]  909 	jr 	nz, stepUpRight3_else
                            910 		;; Move UpRight
   04E7 DD 7E 14      [19]  911 		ld a, Ent_state(ix)	;;
   04EA DD 77 15      [19]  912 		ld Ent_lastState(ix), a	;; LastState <= current state
   04ED DD 36 14 26   [19]  913 		ld Ent_state(ix), #38	;; Next state <= 38
                            914 
   04F1 3E 01         [ 7]  915 		ld a, #1		;; A <= Update physics
   04F3 C9            [10]  916 		ret
   04F4                     917 	stepUpRight3_else:
                            918 	;; else
   04F4 DD 7E 14      [19]  919 	ld a, Ent_state(ix)	;;
   04F7 DD 77 15      [19]  920 	ld Ent_lastState(ix), a	;; LastState <= current state
   04FA DD 36 14 00   [19]  921 	ld Ent_state(ix), #0	;; Next state <= 0
   04FE 3E 01         [ 7]  922 	ld a, #1		;; A <= Update physics
   0500 C9            [10]  923 	ret
                            924 
                            925 
                            926 
                            927 ;; =======================================
                            928 ;; =======================================
                            929 ;; == 	    MOVE UP LEFT STATES	==
                            930 ;; =======================================
                            931 ;; =======================================
                            932 
                            933 ;; ======================================
                            934 ;; 	Step UpLeft 1 State #6
                            935 ;; Entrada:  IX <= Pointer to player data
                            936 ;; Devuelve: A <= Not Update/Update
                            937 ;; ======================================
   0501                     938 stepUpLeft1_state:
   0501 DD 36 17 0F   [19]  939 	ld Ent_sprite(ix), #15		;; Next sprite <= 15
   0505 DD 7E 16      [19]  940 	ld	a, Ent_signal(ix)
   0508 FE 06         [ 7]  941 	cp	#6
   050A 20 0D         [12]  942 	jr 	nz, stepUpLeft1_else
                            943 		;; Move UpLeft
   050C DD 7E 14      [19]  944 		ld a, Ent_state(ix)	;;
   050F DD 77 15      [19]  945 		ld Ent_lastState(ix), a	;; LastState <= current state
ASxxxx Assembler V02.00 + NoICE + SDCC mods  (Zilog Z80 / Hitachi HD64180), page 28.
Hexadecimal [16-Bits]



   0512 DD 36 14 28   [19]  946 		ld Ent_state(ix), #40	;; Next state <= 40
                            947 
   0516 3E 01         [ 7]  948 		ld a, #1		;; A <= Update physics
   0518 C9            [10]  949 		ret
   0519                     950 	stepUpLeft1_else:
                            951 	;; else
   0519 DD 7E 14      [19]  952 	ld a, Ent_state(ix)	;;
   051C DD 77 15      [19]  953 	ld Ent_lastState(ix), a	;; LastState <= current state
   051F DD 36 14 00   [19]  954 	ld Ent_state(ix), #0	;; Next state <= 0
   0523 3E 01         [ 7]  955 	ld a, #1		;; A <= Update physics
   0525 C9            [10]  956 	ret
                            957 
                            958 
                            959 ;; ======================================
                            960 ;; 	Step UpLeft 2 State #40
                            961 ;; Entrada:  IX <= Pointer to player data
                            962 ;; Devuelve: A <= Not Update/Update
                            963 ;; ======================================
   0526                     964 stepUpLeft2_state:
   0526 DD 36 17 10   [19]  965 	ld Ent_sprite(ix), #16			;; Next sprite <= 16
   052A DD 7E 16      [19]  966 	ld	a, Ent_signal(ix)
   052D FE 06         [ 7]  967 	cp	#6
   052F 20 1E         [12]  968 	jr 	nz, stepUpLeft2_else
                            969 		;; Move UpLeft
   0531 DD 7E 15      [19]  970 		ld a, Ent_lastState(ix)
   0534 FE 03         [ 7]  971 		cp #3
   0536 28 0A         [12]  972 		jr z, goto_state_41
                            973 			;; GO TO 6
   0538 DD 7E 14      [19]  974 			ld a, Ent_state(ix)	;;
   053B DD 77 15      [19]  975 			ld Ent_lastState(ix), a	;; LastState <= current state
   053E DD 36 14 06   [19]  976 			ld Ent_state(ix), #6	;; Next state <= 6
   0542                     977 		goto_state_41:
   0542 DD 7E 14      [19]  978 		ld a, Ent_state(ix)	;;
   0545 DD 77 15      [19]  979 		ld Ent_lastState(ix), a	;; LastState <= current state
   0548 DD 36 14 29   [19]  980 		ld Ent_state(ix), #41	;; Next state <= 41
                            981 
   054C 3E 01         [ 7]  982 		ld a, #1		;; A <= Update physics
   054E C9            [10]  983 		ret
   054F                     984 	stepUpLeft2_else:
                            985 	;; else
   054F DD 7E 14      [19]  986 	ld a, Ent_state(ix)	;;
   0552 DD 77 15      [19]  987 	ld Ent_lastState(ix), a	;; LastState <= current state
   0555 DD 36 14 00   [19]  988 	ld Ent_state(ix), #0	;; Next state <= 0
   0559 3E 01         [ 7]  989 	ld a, #1		;; A <= Update physics
   055B C9            [10]  990 	ret
                            991 
                            992 
                            993 ;; ======================================
                            994 ;; 	Step UpLeft 3 State #41
                            995 ;; Entrada:  IX <= Pointer to player data
                            996 ;; Devuelve: A <= Not Update/Update
                            997 ;; ======================================
   055C                     998 stepUpLeft3_state:
   055C DD 36 17 11   [19]  999 	ld Ent_sprite(ix), #17		;; Next sprite <= 17
   0560 DD 7E 16      [19] 1000 	ld	a, Ent_signal(ix)
ASxxxx Assembler V02.00 + NoICE + SDCC mods  (Zilog Z80 / Hitachi HD64180), page 29.
Hexadecimal [16-Bits]



   0563 FE 06         [ 7] 1001 	cp	#6
   0565 20 0D         [12] 1002 	jr 	nz, stepUpLeft3_else
                           1003 		;; Move UpLeft
   0567 DD 7E 14      [19] 1004 		ld a, Ent_state(ix)	;;
   056A DD 77 15      [19] 1005 		ld Ent_lastState(ix), a	;; LastState <= current state
   056D DD 36 14 28   [19] 1006 		ld Ent_state(ix), #40	;; Next state <= 40
                           1007 
   0571 3E 01         [ 7] 1008 		ld a, #1		;; A <= Update physics
   0573 C9            [10] 1009 		ret
   0574                    1010 	stepUpLeft3_else:
                           1011 	;; else
   0574 DD 7E 14      [19] 1012 	ld a, Ent_state(ix)	;;
   0577 DD 77 15      [19] 1013 	ld Ent_lastState(ix), a	;; LastState <= current state
   057A DD 36 14 00   [19] 1014 	ld Ent_state(ix), #0	;; Next state <= 0
   057E 3E 01         [ 7] 1015 	ld a, #1		;; A <= Update physics
   0580 C9            [10] 1016 	ret
                           1017 
                           1018 
                           1019 
                           1020 ;; =======================================
                           1021 ;; =======================================
                           1022 ;; == 	    MOVE DOWN RIGHT STATES	==
                           1023 ;; =======================================
                           1024 ;; =======================================
                           1025 
                           1026 ;; ======================================
                           1027 ;; 	Step DownRight 1 State #7
                           1028 ;; Entrada:  IX <= Pointer to player data
                           1029 ;; Devuelve: A <= Not Update/Update
                           1030 ;; ======================================
   0581                    1031 stepDownRight1_state:
   0581 DD 36 17 12   [19] 1032 	ld Ent_sprite(ix), #18		;; Next sprite <= 18
   0585 DD 7E 16      [19] 1033 	ld	a, Ent_signal(ix)
   0588 FE 07         [ 7] 1034 	cp	#7
   058A 20 0D         [12] 1035 	jr 	nz, stepDownRight1_else
                           1036 		;; Move DownRight
   058C DD 7E 14      [19] 1037 		ld a, Ent_state(ix)	;;
   058F DD 77 15      [19] 1038 		ld Ent_lastState(ix), a	;; LastState <= current state
   0592 DD 36 14 2A   [19] 1039 		ld Ent_state(ix), #42	;; Next state <= 42
                           1040 
   0596 3E 01         [ 7] 1041 		ld a, #1		;; A <= Update physics
   0598 C9            [10] 1042 		ret
   0599                    1043 	stepDownRight1_else:
                           1044 	;; else
   0599 DD 7E 14      [19] 1045 	ld a, Ent_state(ix)	;;
   059C DD 77 15      [19] 1046 	ld Ent_lastState(ix), a	;; LastState <= current state
   059F DD 36 14 00   [19] 1047 	ld Ent_state(ix), #0	;; Next state <= 0
   05A3 3E 01         [ 7] 1048 	ld a, #1		;; A <= Update physics
   05A5 C9            [10] 1049 	ret
                           1050 
                           1051 
                           1052 ;; ======================================
                           1053 ;; 	Step DownRight 2 State #42
                           1054 ;; Entrada:  IX <= Pointer to player data
                           1055 ;; Devuelve: A <= Not Update/Update
ASxxxx Assembler V02.00 + NoICE + SDCC mods  (Zilog Z80 / Hitachi HD64180), page 30.
Hexadecimal [16-Bits]



                           1056 ;; ======================================
   05A6                    1057 stepDownRight2_state:
   05A6 DD 36 17 13   [19] 1058 	ld Ent_sprite(ix), #19			;; Next sprite <= 19
   05AA DD 7E 16      [19] 1059 	ld	a, Ent_signal(ix)
   05AD FE 07         [ 7] 1060 	cp	#7
   05AF 20 1E         [12] 1061 	jr 	nz, stepDownRight2_else
                           1062 		;; Move DownRight
   05B1 DD 7E 15      [19] 1063 		ld a, Ent_lastState(ix)
   05B4 FE 03         [ 7] 1064 		cp #3
   05B6 28 0A         [12] 1065 		jr z, goto_state_43
                           1066 			;; GO TO 7
   05B8 DD 7E 14      [19] 1067 			ld a, Ent_state(ix)	;;
   05BB DD 77 15      [19] 1068 			ld Ent_lastState(ix), a	;; LastState <= current state
   05BE DD 36 14 07   [19] 1069 			ld Ent_state(ix), #7	;; Next state <= 7
   05C2                    1070 		goto_state_43:
   05C2 DD 7E 14      [19] 1071 		ld a, Ent_state(ix)	;;
   05C5 DD 77 15      [19] 1072 		ld Ent_lastState(ix), a	;; LastState <= current state
   05C8 DD 36 14 2B   [19] 1073 		ld Ent_state(ix), #43	;; Next state <= 43
                           1074 
   05CC 3E 01         [ 7] 1075 		ld a, #1		;; A <= Update physics
   05CE C9            [10] 1076 		ret
   05CF                    1077 	stepDownRight2_else:
                           1078 	;; else
   05CF DD 7E 14      [19] 1079 	ld a, Ent_state(ix)	;;
   05D2 DD 77 15      [19] 1080 	ld Ent_lastState(ix), a	;; LastState <= current state
   05D5 DD 36 14 00   [19] 1081 	ld Ent_state(ix), #0	;; Next state <= 0
   05D9 3E 01         [ 7] 1082 	ld a, #1		;; A <= Update physics
   05DB C9            [10] 1083 	ret
                           1084 
                           1085 
                           1086 ;; ======================================
                           1087 ;; 	Step DownRight 3 State #43
                           1088 ;; Entrada:  IX <= Pointer to player data
                           1089 ;; Devuelve: A <= Not Update/Update
                           1090 ;; ======================================
   05DC                    1091 stepDownRight3_state:
   05DC DD 36 17 14   [19] 1092 	ld Ent_sprite(ix), #20		;; Next sprite <= 20
   05E0 DD 7E 16      [19] 1093 	ld	a, Ent_signal(ix)
   05E3 FE 07         [ 7] 1094 	cp	#7
   05E5 20 0D         [12] 1095 	jr 	nz, stepDownRight3_else
                           1096 		;; Move DownRight
   05E7 DD 7E 14      [19] 1097 		ld a, Ent_state(ix)	;;
   05EA DD 77 15      [19] 1098 		ld Ent_lastState(ix), a	;; LastState <= current state
   05ED DD 36 14 2A   [19] 1099 		ld Ent_state(ix), #42	;; Next state <= 42
                           1100 
   05F1 3E 01         [ 7] 1101 		ld a, #1		;; A <= Update physics
   05F3 C9            [10] 1102 		ret
   05F4                    1103 	stepDownRight3_else:
                           1104 	;; else
   05F4 DD 7E 14      [19] 1105 	ld a, Ent_state(ix)	;;
   05F7 DD 77 15      [19] 1106 	ld Ent_lastState(ix), a	;; LastState <= current state
   05FA DD 36 14 00   [19] 1107 	ld Ent_state(ix), #0	;; Next state <= 0
   05FE 3E 01         [ 7] 1108 	ld a, #1		;; A <= Update physics
   0600 C9            [10] 1109 	ret
                           1110 
ASxxxx Assembler V02.00 + NoICE + SDCC mods  (Zilog Z80 / Hitachi HD64180), page 31.
Hexadecimal [16-Bits]



                           1111 
                           1112 
                           1113 
                           1114 ;; =======================================
                           1115 ;; =======================================
                           1116 ;; == 	    MOVE DOWN LEFT STATES	==
                           1117 ;; =======================================
                           1118 ;; =======================================
                           1119 
                           1120 ;; ======================================
                           1121 ;; 	Step DownLeft 1 State #8
                           1122 ;; Entrada:  IX <= Pointer to player data
                           1123 ;; Devuelve: A <= Not Update/Update
                           1124 ;; ======================================
   0601                    1125 stepDownLeft1_state:
   0601 DD 36 17 15   [19] 1126 	ld Ent_sprite(ix), #21		;; Next sprite <= 21
   0605 DD 7E 16      [19] 1127 	ld	a, Ent_signal(ix)
   0608 FE 08         [ 7] 1128 	cp	#8
   060A 20 0D         [12] 1129 	jr 	nz, stepDownLeft1_else
                           1130 		;; Move DownLeft
   060C DD 7E 14      [19] 1131 		ld a, Ent_state(ix)	;;
   060F DD 77 15      [19] 1132 		ld Ent_lastState(ix), a	;; LastState <= current state
   0612 DD 36 14 2C   [19] 1133 		ld Ent_state(ix), #44	;; Next state <= 44
                           1134 
   0616 3E 01         [ 7] 1135 		ld a, #1		;; A <= Update physics
   0618 C9            [10] 1136 		ret
   0619                    1137 	stepDownLeft1_else:
                           1138 	;; else
   0619 DD 7E 14      [19] 1139 	ld a, Ent_state(ix)	;;
   061C DD 77 15      [19] 1140 	ld Ent_lastState(ix), a	;; LastState <= current state
   061F DD 36 14 00   [19] 1141 	ld Ent_state(ix), #0	;; Next state <= 0
   0623 3E 01         [ 7] 1142 	ld a, #1		;; A <= Update physics
   0625 C9            [10] 1143 	ret
                           1144 
                           1145 
                           1146 ;; ======================================
                           1147 ;; 	Step DownLeft 2 State #44
                           1148 ;; Entrada:  IX <= Pointer to player data
                           1149 ;; Devuelve: A <= Not Update/Update
                           1150 ;; ======================================
   0626                    1151 stepDownLeft2_state:
   0626 DD 36 17 16   [19] 1152 	ld Ent_sprite(ix), #22			;; Next sprite <= 22
   062A DD 7E 16      [19] 1153 	ld	a, Ent_signal(ix)
   062D FE 08         [ 7] 1154 	cp	#8
   062F 20 1E         [12] 1155 	jr 	nz, stepDownLeft2_else
                           1156 		;; Move DownLeft
   0631 DD 7E 15      [19] 1157 		ld a, Ent_lastState(ix)
   0634 FE 03         [ 7] 1158 		cp #3
   0636 28 0A         [12] 1159 		jr z, goto_state_45
                           1160 			;; GO TO 8
   0638 DD 7E 14      [19] 1161 			ld a, Ent_state(ix)	;;
   063B DD 77 15      [19] 1162 			ld Ent_lastState(ix), a	;; LastState <= current state
   063E DD 36 14 08   [19] 1163 			ld Ent_state(ix), #8	;; Next state <= 8
   0642                    1164 		goto_state_45:
   0642 DD 7E 14      [19] 1165 		ld a, Ent_state(ix)	;;
ASxxxx Assembler V02.00 + NoICE + SDCC mods  (Zilog Z80 / Hitachi HD64180), page 32.
Hexadecimal [16-Bits]



   0645 DD 77 15      [19] 1166 		ld Ent_lastState(ix), a	;; LastState <= current state
   0648 DD 36 14 2D   [19] 1167 		ld Ent_state(ix), #45	;; Next state <= 45
                           1168 
   064C 3E 01         [ 7] 1169 		ld a, #1		;; A <= Update physics
   064E C9            [10] 1170 		ret
   064F                    1171 	stepDownLeft2_else:
                           1172 	;; else
   064F DD 7E 14      [19] 1173 	ld a, Ent_state(ix)	;;
   0652 DD 77 15      [19] 1174 	ld Ent_lastState(ix), a	;; LastState <= current state
   0655 DD 36 14 00   [19] 1175 	ld Ent_state(ix), #0	;; Next state <= 0
   0659 3E 01         [ 7] 1176 	ld a, #1		;; A <= Update physics
   065B C9            [10] 1177 	ret
                           1178 
                           1179 
                           1180 ;; ======================================
                           1181 ;; 	Step DownLeft 3 State #45
                           1182 ;; Entrada:  IX <= Pointer to player data
                           1183 ;; Devuelve: A <= Not Update/Update
                           1184 ;; ======================================
   065C                    1185 stepDownLeft3_state:
   065C DD 36 17 17   [19] 1186 	ld Ent_sprite(ix), #23		;; Next sprite <= 23
   0660 DD 7E 16      [19] 1187 	ld	a, Ent_signal(ix)
   0663 FE 08         [ 7] 1188 	cp	#8
   0665 20 0D         [12] 1189 	jr 	nz, stepDownLeft3_else
                           1190 		;; Move DownLeft
   0667 DD 7E 14      [19] 1191 		ld a, Ent_state(ix)	;;
   066A DD 77 15      [19] 1192 		ld Ent_lastState(ix), a	;; LastState <= current state
   066D DD 36 14 2C   [19] 1193 		ld Ent_state(ix), #44	;; Next state <= 44
                           1194 
   0671 3E 01         [ 7] 1195 		ld a, #1		;; A <= Update physics
   0673 C9            [10] 1196 		ret
   0674                    1197 	stepDownLeft3_else:
                           1198 	;; else
   0674 DD 7E 14      [19] 1199 	ld a, Ent_state(ix)	;;
   0677 DD 77 15      [19] 1200 	ld Ent_lastState(ix), a	;; LastState <= current state
   067A DD 36 14 00   [19] 1201 	ld Ent_state(ix), #0	;; Next state <= 0
   067E 3E 01         [ 7] 1202 	ld a, #1		;; A <= Update physics
   0680 C9            [10] 1203 	ret
                           1204 
                           1205 
                           1206 
                           1207 ;; =======================================
                           1208 ;; =======================================
                           1209 ;; == 	    THROW DOWN STATES		==
                           1210 ;; =======================================
                           1211 ;; =======================================
                           1212 
                           1213 ;; ======================================
                           1214 ;; 	Throw Down 1 State #9
                           1215 ;; Entrada:  IX <= Pointer to player data
                           1216 ;; Devuelve: A <= Not Update/Update
                           1217 ;; ======================================
   0681                    1218 throwDown1_state:
   0681 DD 36 17 18   [19] 1219 	ld Ent_sprite(ix), #24	;; Next sprite <= 24
   0685 DD 7E 14      [19] 1220 	ld a, Ent_state(ix)	;;
ASxxxx Assembler V02.00 + NoICE + SDCC mods  (Zilog Z80 / Hitachi HD64180), page 33.
Hexadecimal [16-Bits]



   0688 DD 77 15      [19] 1221 	ld Ent_lastState(ix), a	;; LastState <= current state
   068B DD 36 14 0A   [19] 1222 	ld Ent_state(ix), #10	;; Next state <= 10
                           1223 
   068F 3E 00         [ 7] 1224 	ld a, #0		;; A <= Not update physics
   0691 C9            [10] 1225 	ret
                           1226 
                           1227 ;; ======================================
                           1228 ;; 	Throw Down 2 State #10
                           1229 ;; Entrada:  IX <= Pointer to player data
                           1230 ;; Devuelve: A <= Not Update/Update
                           1231 ;; ======================================
   0692                    1232 throwDown2_state:
   0692 DD 36 17 19   [19] 1233 	ld Ent_sprite(ix), #25	;; Next sprite <= 25
   0696 DD 7E 14      [19] 1234 	ld a, Ent_state(ix)	;;
   0699 DD 77 15      [19] 1235 	ld Ent_lastState(ix), a	;; LastState <= current state
   069C DD 36 14 0B   [19] 1236 	ld Ent_state(ix), #11	;; Next state <= 11
                           1237 
   06A0 3E 00         [ 7] 1238 	ld a, #0		;; A <= Not update physics
   06A2 C9            [10] 1239 	ret
                           1240 
                           1241 ;; ======================================
                           1242 ;; 	Throw Down 3 State #11
                           1243 ;; Entrada:  IX <= Pointer to player data
                           1244 ;; Devuelve: A <= Not Update/Update
                           1245 ;; ======================================
   06A3                    1246 throwDown3_state:
   06A3 DD 36 17 1A   [19] 1247 	ld Ent_sprite(ix), #26	;; Next sprite <= 26
   06A7 DD 7E 14      [19] 1248 	ld a, Ent_state(ix)	;;
   06AA DD 77 15      [19] 1249 	ld Ent_lastState(ix), a	;; LastState <= current state
   06AD DD 36 14 0C   [19] 1250 	ld Ent_state(ix), #12	;; Next state <= 12
                           1251 
   06B1 3E 00         [ 7] 1252 	ld a, #0		;; A <= Not update physics
   06B3 C9            [10] 1253 	ret
                           1254 
                           1255 ;; ======================================
                           1256 ;; 	Throw Down 4 State #12
                           1257 ;; Entrada:  IX <= Pointer to player data
                           1258 ;; Devuelve: A <= Not Update/Update
                           1259 ;; ======================================
   06B4                    1260 throwDown4_state:
   06B4 DD 36 17 1B   [19] 1261 	ld Ent_sprite(ix), #27	;; Next sprite <= 27
   06B8 DD 7E 14      [19] 1262 	ld a, Ent_state(ix)	;;
   06BB DD 77 15      [19] 1263 	ld Ent_lastState(ix), a	;; LastState <= current state
   06BE DD 36 14 0D   [19] 1264 	ld Ent_state(ix), #13	;; Next state <= 13
                           1265 
   06C2 3E 00         [ 7] 1266 	ld a, #0		;; A <= Not update physics
   06C4 C9            [10] 1267 	ret
                           1268 
                           1269 ;; ======================================
                           1270 ;; 	Throw Down 5 State #13
                           1271 ;; Entrada:  IX <= Pointer to player data
                           1272 ;; Devuelve: A <= Not Update/Update
                           1273 ;; ======================================
   06C5                    1274 throwDown5_state:
   06C5 DD 36 17 1C   [19] 1275 	ld Ent_sprite(ix), #28	;; Next sprite <= 28
ASxxxx Assembler V02.00 + NoICE + SDCC mods  (Zilog Z80 / Hitachi HD64180), page 34.
Hexadecimal [16-Bits]



   06C9 DD 7E 14      [19] 1276 	ld a, Ent_state(ix)	;;
   06CC DD 77 15      [19] 1277 	ld Ent_lastState(ix), a	;; LastState <= current state
   06CF DD 36 14 0E   [19] 1278 	ld Ent_state(ix), #14	;; Next state <= 14
                           1279 
   06D3 3E 00         [ 7] 1280 	ld a, #0		;; A <= Not update physics
   06D5 C9            [10] 1281 	ret
                           1282 
                           1283 ;; ======================================
                           1284 ;; 	Throw Down 6 State #14
                           1285 ;; Entrada:  IX <= Pointer to player data
                           1286 ;; Devuelve: A <= Not Update/Update
                           1287 ;; ======================================
   06D6                    1288 throwDown6_state:
   06D6 DD 36 17 1D   [19] 1289 	ld Ent_sprite(ix), #29	;; Next sprite <= 29
   06DA DD 7E 14      [19] 1290 	ld a, Ent_state(ix)	;;
   06DD DD 77 15      [19] 1291 	ld Ent_lastState(ix), a	;; LastState <= current state
   06E0 DD 36 14 0F   [19] 1292 	ld Ent_state(ix), #15	;; Next state <= 15
                           1293 
   06E4 3E 00         [ 7] 1294 	ld a, #0		;; A <= Not update physics
   06E6 C9            [10] 1295 	ret
                           1296 
                           1297 ;; ======================================
                           1298 ;; 	Throw Down 7 State #15
                           1299 ;; Entrada:  IX <= Pointer to player data
                           1300 ;; Devuelve: A <= Not Update/Update
                           1301 ;; ======================================
   06E7                    1302 throwDown7_state:
   06E7 DD 36 17 1E   [19] 1303 	ld Ent_sprite(ix), #30	;; Next sprite <= 30
   06EB DD 7E 14      [19] 1304 	ld a, Ent_state(ix)	;;
   06EE DD 77 15      [19] 1305 	ld Ent_lastState(ix), a	;; LastState <= current state
   06F1 DD 36 14 00   [19] 1306 	ld Ent_state(ix), #0	;; Next state <= 0
                           1307 
   06F5 3E 00         [ 7] 1308 	ld a, #0		;; A <= Not update physics
   06F7 C9            [10] 1309 	ret
                           1310 
                           1311 
                           1312 
                           1313 ;; =======================================
                           1314 ;; =======================================
                           1315 ;; == 	    THROW UP STATES		==
                           1316 ;; =======================================
                           1317 ;; =======================================
                           1318 
                           1319 ;; ======================================
                           1320 ;; 	Throw Up 1 State #16
                           1321 ;; Entrada:  IX <= Pointer to player data
                           1322 ;; Devuelve: A <= Not Update/Update
                           1323 ;; ======================================
   06F8                    1324 throwUp1_state:
   06F8 DD 36 17 18   [19] 1325 	ld Ent_sprite(ix), #24	;; Next sprite <= 24
   06FC DD 7E 14      [19] 1326 	ld a, Ent_state(ix)	;;
   06FF DD 77 15      [19] 1327 	ld Ent_lastState(ix), a	;; LastState <= current state
   0702 DD 36 14 11   [19] 1328 	ld Ent_state(ix), #17	;; Next state <= 17
                           1329 
   0706 3E 00         [ 7] 1330 	ld a, #0		;; A <= Not update physics
ASxxxx Assembler V02.00 + NoICE + SDCC mods  (Zilog Z80 / Hitachi HD64180), page 35.
Hexadecimal [16-Bits]



   0708 C9            [10] 1331 	ret
                           1332 
                           1333 ;; ======================================
                           1334 ;; 	Throw Up 2 State #17
                           1335 ;; Entrada:  IX <= Pointer to player data
                           1336 ;; Devuelve: A <= Not Update/Update
                           1337 ;; ======================================
   0709                    1338 throwUp2_state:
   0709 DD 36 17 1F   [19] 1339 	ld Ent_sprite(ix), #31	;; Next sprite <= 31
   070D DD 7E 14      [19] 1340 	ld a, Ent_state(ix)	;;
   0710 DD 77 15      [19] 1341 	ld Ent_lastState(ix), a	;; LastState <= current state
   0713 DD 36 14 12   [19] 1342 	ld Ent_state(ix), #18	;; Next state <= 18
                           1343 
   0717 3E 00         [ 7] 1344 	ld a, #0		;; A <= Not update physics
   0719 C9            [10] 1345 	ret
                           1346 
                           1347 ;; ======================================
                           1348 ;; 	Throw Up 3 State #18
                           1349 ;; Entrada:  IX <= Pointer to player data
                           1350 ;; Devuelve: A <= Not Update/Update
                           1351 ;; ======================================
   071A                    1352 throwUp3_state:
   071A DD 36 17 1E   [19] 1353 	ld Ent_sprite(ix), #30	;; Next sprite <= 30
   071E DD 7E 14      [19] 1354 	ld a, Ent_state(ix)	;;
   0721 DD 77 15      [19] 1355 	ld Ent_lastState(ix), a	;; LastState <= current state
   0724 DD 36 14 13   [19] 1356 	ld Ent_state(ix), #19	;; Next state <= 19
                           1357 
   0728 3E 00         [ 7] 1358 	ld a, #0		;; A <= Not update physics
   072A C9            [10] 1359 	ret
                           1360 
                           1361 ;; ======================================
                           1362 ;; 	Throw Up 4 State #19
                           1363 ;; Entrada:  IX <= Pointer to player data
                           1364 ;; Devuelve: A <= Not Update/Update
                           1365 ;; ======================================
   072B                    1366 throwUp4_state:
   072B DD 36 17 1D   [19] 1367 	ld Ent_sprite(ix), #29	;; Next sprite <= 29
   072F DD 7E 14      [19] 1368 	ld a, Ent_state(ix)	;;
   0732 DD 77 15      [19] 1369 	ld Ent_lastState(ix), a	;; LastState <= current state
   0735 DD 36 14 14   [19] 1370 	ld Ent_state(ix), #20	;; Next state <= 20
                           1371 
   0739 3E 00         [ 7] 1372 	ld a, #0		;; A <= Not update physics
   073B C9            [10] 1373 	ret
                           1374 
                           1375 ;; ======================================
                           1376 ;; 	Throw Up 5 State #20
                           1377 ;; Entrada:  IX <= Pointer to player data
                           1378 ;; Devuelve: A <= Not Update/Update
                           1379 ;; ======================================
   073C                    1380 throwUp5_state:
   073C DD 36 17 1C   [19] 1381 	ld Ent_sprite(ix), #28	;; Next sprite <= 28
   0740 DD 7E 14      [19] 1382 	ld a, Ent_state(ix)	;;
   0743 DD 77 15      [19] 1383 	ld Ent_lastState(ix), a	;; LastState <= current state
   0746 DD 36 14 15   [19] 1384 	ld Ent_state(ix), #21	;; Next state <= 21
                           1385 
ASxxxx Assembler V02.00 + NoICE + SDCC mods  (Zilog Z80 / Hitachi HD64180), page 36.
Hexadecimal [16-Bits]



   074A 3E 00         [ 7] 1386 	ld a, #0		;; A <= Not update physics
   074C C9            [10] 1387 	ret
                           1388 
                           1389 ;; ======================================
                           1390 ;; 	Throw Up 6 State #21
                           1391 ;; Entrada:  IX <= Pointer to player data
                           1392 ;; Devuelve: A <= Not Update/Update
                           1393 ;; ======================================
   074D                    1394 throwUp6_state:
   074D DD 36 17 1B   [19] 1395 	ld Ent_sprite(ix), #27	;; Next sprite <= 27
   0751 DD 7E 14      [19] 1396 	ld a, Ent_state(ix)	;;
   0754 DD 77 15      [19] 1397 	ld Ent_lastState(ix), a	;; LastState <= current state
   0757 DD 36 14 0F   [19] 1398 	ld Ent_state(ix), #15	;; Next state <= 15
                           1399 
   075B 3E 00         [ 7] 1400 	ld a, #0		;; A <= Not update physics
   075D C9            [10] 1401 	ret
                           1402 
                           1403 ;; ======================================
                           1404 ;; 	Throw Up 7 State #22
                           1405 ;; Entrada:  IX <= Pointer to player data
                           1406 ;; Devuelve: A <= Not Update/Update
                           1407 ;; ======================================
   075E                    1408 throwUp7_state:
   075E DD 36 17 1A   [19] 1409 	ld Ent_sprite(ix), #26	;; Next sprite <= 26
   0762 DD 7E 14      [19] 1410 	ld a, Ent_state(ix)	;;
   0765 DD 77 15      [19] 1411 	ld Ent_lastState(ix), a	;; LastState <= current state
   0768 DD 36 14 00   [19] 1412 	ld Ent_state(ix), #0	;; Next state <= 0
                           1413 
   076C 3E 00         [ 7] 1414 	ld a, #0		;; A <= Not update physics
   076E C9            [10] 1415 	ret
                           1416 
                           1417 
                           1418 
                           1419 ;; =======================================
                           1420 ;; =======================================
                           1421 ;; == 	    THROW STRAIGHT STATES	==
                           1422 ;; =======================================
                           1423 ;; =======================================
                           1424 
                           1425 ;; ======================================
                           1426 ;; 	Throw Straight 1 State #23
                           1427 ;; Entrada:  IX <= Pointer to player data
                           1428 ;; Devuelve: A <= Not Update/Update
                           1429 ;; ======================================
   076F                    1430 throwStraight1_state:
   076F DD 36 17 18   [19] 1431 	ld Ent_sprite(ix), #24	;; Next sprite <= 24
   0773 DD 7E 14      [19] 1432 	ld a, Ent_state(ix)	;;
   0776 DD 77 15      [19] 1433 	ld Ent_lastState(ix), a	;; LastState <= current state
   0779 DD 36 14 18   [19] 1434 	ld Ent_state(ix), #24	;; Next state <= 24
                           1435 
   077D 3E 00         [ 7] 1436 	ld a, #0		;; A <= Not update physics
   077F C9            [10] 1437 	ret
                           1438 
                           1439 ;; ======================================
                           1440 ;; 	Throw Straight 2 State #24
ASxxxx Assembler V02.00 + NoICE + SDCC mods  (Zilog Z80 / Hitachi HD64180), page 37.
Hexadecimal [16-Bits]



                           1441 ;; Entrada:  IX <= Pointer to player data
                           1442 ;; Devuelve: A <= Not Update/Update
                           1443 ;; ======================================
   0780                    1444 throwStraight2_state:
   0780 DD 36 17 1F   [19] 1445 	ld Ent_sprite(ix), #31	;; Next sprite <= 31
   0784 DD 7E 14      [19] 1446 	ld a, Ent_state(ix)	;;
   0787 DD 77 15      [19] 1447 	ld Ent_lastState(ix), a	;; LastState <= current state
   078A DD 36 14 19   [19] 1448 	ld Ent_state(ix), #25	;; Next state <= 25
                           1449 
   078E 3E 00         [ 7] 1450 	ld a, #0		;; A <= Not update physics
   0790 C9            [10] 1451 	ret
                           1452 
                           1453 ;; ======================================
                           1454 ;; 	Throw Straight 3 State #25
                           1455 ;; Entrada:  IX <= Pointer to player data
                           1456 ;; Devuelve: A <= Not Update/Update
                           1457 ;; ======================================
   0791                    1458 throwStraight3_state:
   0791 DD 36 17 1E   [19] 1459 	ld Ent_sprite(ix), #30	;; Next sprite <= 30
   0795 DD 7E 14      [19] 1460 	ld a, Ent_state(ix)	;;
   0798 DD 77 15      [19] 1461 	ld Ent_lastState(ix), a	;; LastState <= current state
   079B DD 36 14 1A   [19] 1462 	ld Ent_state(ix), #26	;; Next state <= 26
                           1463 
   079F 3E 00         [ 7] 1464 	ld a, #0		;; A <= Not update physics
   07A1 C9            [10] 1465 	ret
                           1466 
                           1467 ;; ======================================
                           1468 ;; 	Throw Straight 4 State #26
                           1469 ;; Entrada:  IX <= Pointer to player data
                           1470 ;; Devuelve: A <= Not Update/Update
                           1471 ;; ======================================
   07A2                    1472 throwStraight4_state:
   07A2 DD 36 17 1D   [19] 1473 	ld Ent_sprite(ix), #29	;; Next sprite <= 29
   07A6 DD 7E 14      [19] 1474 	ld a, Ent_state(ix)	;;
   07A9 DD 77 15      [19] 1475 	ld Ent_lastState(ix), a	;; LastState <= current state
   07AC DD 36 14 1B   [19] 1476 	ld Ent_state(ix), #27	;; Next state <= 27
                           1477 
   07B0 3E 00         [ 7] 1478 	ld a, #0		;; A <= Not update physics
   07B2 C9            [10] 1479 	ret
                           1480 
                           1481 ;; ======================================
                           1482 ;; 	Throw Straight 5 State #27
                           1483 ;; Entrada:  IX <= Pointer to player data
                           1484 ;; Devuelve: A <= Not Update/Update
                           1485 ;; ======================================
   07B3                    1486 throwStraight5_state:
   07B3 DD 36 17 1C   [19] 1487 	ld Ent_sprite(ix), #28	;; Next sprite <= 28
   07B7 DD 7E 14      [19] 1488 	ld a, Ent_state(ix)	;;
   07BA DD 77 15      [19] 1489 	ld Ent_lastState(ix), a	;; LastState <= current state
   07BD DD 36 14 1C   [19] 1490 	ld Ent_state(ix), #28	;; Next state <= 28
                           1491 
   07C1 3E 00         [ 7] 1492 	ld a, #0		;; A <= Not update physics
   07C3 C9            [10] 1493 	ret
                           1494 
                           1495 ;; ======================================
ASxxxx Assembler V02.00 + NoICE + SDCC mods  (Zilog Z80 / Hitachi HD64180), page 38.
Hexadecimal [16-Bits]



                           1496 ;; 	Throw Straight 6 State #28
                           1497 ;; Entrada:  IX <= Pointer to player data
                           1498 ;; Devuelve: A <= Not Update/Update
                           1499 ;; ======================================
   07C4                    1500 throwStraight6_state:
   07C4 DD 36 17 1D   [19] 1501 	ld Ent_sprite(ix), #29	;; Next sprite <= 29
   07C8 DD 7E 14      [19] 1502 	ld a, Ent_state(ix)	;;
   07CB DD 77 15      [19] 1503 	ld Ent_lastState(ix), a	;; LastState <= current state
   07CE DD 36 14 1D   [19] 1504 	ld Ent_state(ix), #29	;; Next state <= 29
                           1505 
   07D2 3E 00         [ 7] 1506 	ld a, #0		;; A <= Not update physics
   07D4 C9            [10] 1507 	ret
                           1508 
                           1509 ;; ======================================
                           1510 ;; 	Throw Straight 7 State #29
                           1511 ;; Entrada:  IX <= Pointer to player data
                           1512 ;; Devuelve: A <= Not Update/Update
                           1513 ;; ======================================
   07D5                    1514 throwStraight7_state:
   07D5 DD 36 17 1E   [19] 1515 	ld Ent_sprite(ix), #30	;; Next sprite <= 30
   07D9 DD 7E 14      [19] 1516 	ld a, Ent_state(ix)	;;
   07DC DD 77 15      [19] 1517 	ld Ent_lastState(ix), a	;; LastState <= current state
   07DF DD 36 14 00   [19] 1518 	ld Ent_state(ix), #0	;; Next state <= 0
                           1519 
   07E3 3E 00         [ 7] 1520 	ld a, #0		;; A <= Not update physics
   07E5 C9            [10] 1521 	ret
                           1522 
                           1523 
                           1524 ;; =========================================
                           1525 ;; Invierte los datos para poder operarlos
                           1526 ;;	en C
                           1527 ;; Entrada:
                           1528 ;;	IX <= Pointer to entity data
                           1529 ;;	Modifica: BC
                           1530 ;; =========================================
   07E6                    1531 invert_variables:
                           1532 	;; Inverts X
   07E6 DD 46 00      [19] 1533 	ld	b,	Ent_x_I(ix)
   07E9 DD 4E 01      [19] 1534 	ld	c,	Ent_x_F(ix)
   07EC DD 71 00      [19] 1535 	ld	Ent_x_I(ix), c
   07EF DD 70 01      [19] 1536 	ld	Ent_x_F(ix), b
                           1537 
                           1538 	;; Inverts Y
   07F2 DD 46 02      [19] 1539 	ld	b,	Ent_y_I(ix)
   07F5 DD 4E 03      [19] 1540 	ld	c,	Ent_y_F(ix)
   07F8 DD 71 02      [19] 1541 	ld	Ent_y_I(ix), c
   07FB DD 70 03      [19] 1542 	ld	Ent_y_F(ix), b
                           1543 
                           1544 	;; Inverts AX
   07FE DD 46 0A      [19] 1545 	ld	b, Ent_ax_I(ix)		 
   0801 DD 4E 0B      [19] 1546 	ld	c, Ent_ax_F(ix)		 
   0804 DD 71 0A      [19] 1547 	ld	Ent_ax_I(ix), c		 
   0807 DD 70 0B      [19] 1548 	ld	Ent_ax_F(ix), b		
                           1549 
                           1550 	;; Inverts AY
ASxxxx Assembler V02.00 + NoICE + SDCC mods  (Zilog Z80 / Hitachi HD64180), page 39.
Hexadecimal [16-Bits]



   080A DD 46 0C      [19] 1551 	ld	b, Ent_ay_I(ix)		 
   080D DD 4E 0D      [19] 1552 	ld	c, Ent_ay_F(ix)		 
   0810 DD 71 0C      [19] 1553 	ld	Ent_ay_I(ix), c		 
   0813 DD 70 0D      [19] 1554 	ld	Ent_ay_F(ix), b		
                           1555 
                           1556 	;; FALTARIA EFECTO, CUIDAO
                           1557 
   0816 C9            [10] 1558 	ret
                           1559 
   0817                    1560 move_IA:
                           1561 
   0817 DD 21 00 00   [14] 1562 	ld	ix, #frisbee_data
   081B DD E5         [15] 1563 	push 	ix
   081D CD E6 07      [17] 1564 	call 	invert_variables
   0820 DD 21 00 00   [14] 1565 	ld	ix, #player_data
   0824 DD E5         [15] 1566 	push 	ix
   0826 CD E6 07      [17] 1567 	call 	invert_variables
   0829 DD 21 00 00   [14] 1568 	ld	ix, #enemy_data
   082D DD E5         [15] 1569 	push 	ix
   082F CD E6 07      [17] 1570 	call 	invert_variables
   0832 CD 00 00      [17] 1571 	call _moveIA			;; moveIA(TEntity* myself, TEntity* enemy, TEntity* frisbee)
                           1572 	
   0835 DD E1         [14] 1573 	pop 	ix
   0837 DD E1         [14] 1574 	pop 	ix
   0839 DD E1         [14] 1575 	pop 	ix
                           1576 
   083B DD 21 00 00   [14] 1577 	ld	ix, #frisbee_data
   083F CD E6 07      [17] 1578 	call 	invert_variables
   0842 DD 21 00 00   [14] 1579 	ld	ix, #player_data
   0846 CD E6 07      [17] 1580 	call 	invert_variables
   0849 DD 21 00 00   [14] 1581 	ld	ix, #enemy_data
   084D CD E6 07      [17] 1582 	call 	invert_variables
                           1583 
                           1584 
   0850 C9            [10] 1585 	ret
                           1586 	
                           1587 ;; =========================================
                           1588 ;; Comprueba si la entidad colisiona con 
                           1589 ;; 	el frisbee
                           1590 ;; Entrada:
                           1591 ;; 	IX <= puntero al player a comparar
                           1592 ;; 		con el frisbee
                           1593 ;; Modifica: AF, B, HL, IX
                           1594 ;; Devuelve:
                           1595 ;; 	A <= 	0 si no hay colisin
                           1596 ;; 		>1 si hay colisin
                           1597 ;; =========================================
   0851                    1598 checkFrisbeeCollision:
   0851 21 00 00      [10] 1599 	ld 	hl, #frisbee_data	;; HL <= frisbee_data
   0854 CD 00 00      [17] 1600 	call 	entityCheckCollision 	;; A <= collison/no_collision
                           1601 
   0857 C9            [10] 1602 	ret
                           1603 
                           1604 
                           1605 ;; ===============================================
ASxxxx Assembler V02.00 + NoICE + SDCC mods  (Zilog Z80 / Hitachi HD64180), page 40.
Hexadecimal [16-Bits]



                           1606 ;; Acelera la entidad hacia la derecha, si puede
                           1607 ;; Entrada:
                           1608 ;; 	IX <= puntero a los datos de la entidad
                           1609 ;; Modifica A, IX
                           1610 ;; ===============================================
   0858                    1611 moveRight:
   0858 DD 36 0A 00   [19] 1612 	ld 	Ent_ax_I(ix), #0
   085C DD 36 0B 20   [19] 1613 	ld 	Ent_ax_F(ix), #std_acc	;; Ent_ay <= 00(0)E2(30) (30)
   0860 C9            [10] 1614 	ret
                           1615 
                           1616 ;; ===============================================
                           1617 ;; Acelera la entidad hacia abajo, si puede
                           1618 ;; Entrada:
                           1619 ;; 	IX <= puntero a los datos de la entidad
                           1620 ;; Modifica A, IX
                           1621 ;; ===============================================
   0861                    1622 moveDown:
   0861 DD 36 0C 00   [19] 1623 	ld 	Ent_ay_I(ix), #0
   0865 DD 36 0D 20   [19] 1624 	ld 	Ent_ay_F(ix), #std_acc	;; Ent_ay <= 00(0)E2(30) (30)
                           1625 
   0869 C9            [10] 1626 	ret
                           1627 
                           1628 ;; ===============================================
                           1629 ;; Acelera la entidad hacia la izquierda, si puede
                           1630 ;; Entrada:
                           1631 ;; 	IX <= puntero a los datos de la entidad
                           1632 ;; Modifica A, IX
                           1633 ;; ===============================================
   086A                    1634 moveLeft:
   086A DD 36 0A FF   [19] 1635 	ld 	Ent_ax_I(ix), #-1
   086E DD 36 0B E0   [19] 1636 	ld 	Ent_ax_F(ix), #-std_acc	;; Ent_ax <= FF(-1)E2(-30) (-30)
                           1637 
   0872 C9            [10] 1638 	ret
                           1639 
                           1640 ;; ===============================================
                           1641 ;; Acelera la entidad hacia arriba, si puede
                           1642 ;; Entrada:
                           1643 ;; 	IX <= puntero a los datos de la entidad
                           1644 ;; Modifica A, IX
                           1645 ;; ===============================================
   0873                    1646 moveUp:
   0873 DD 36 0C FF   [19] 1647 	ld 	Ent_ay_I(ix), #-1
   0877 DD 36 0D E0   [19] 1648 	ld 	Ent_ay_F(ix), #-std_acc	;; Ent_ay <= FF(-1)E2(-30) (-30)
                           1649 
   087B C9            [10] 1650 	ret
                           1651 
                           1652 
                           1653 ;; ===========================================
                           1654 ;; Chequea si un jugador pasa del centro del
                           1655 ;; 	campo y lo corrige en caso necesario
                           1656 ;; Entrada:
                           1657 ;; 	IX <= pointer to entity data
                           1658 ;; Modifica AF, BC, DE, HL
                           1659 ;; ===========================================
   087C                    1660 checkCenterCrossing:
ASxxxx Assembler V02.00 + NoICE + SDCC mods  (Zilog Z80 / Hitachi HD64180), page 41.
Hexadecimal [16-Bits]



   087C DD 7E 1A      [19] 1661 	ld 	a, Ent_id(ix)
   087F FE 01         [ 7] 1662 	cp 	#1
   0881 28 11         [12] 1663 	jr	z, player_1
   0883 FE 02         [ 7] 1664 		cp	#2
   0885 20 1F         [12] 1665 		jr	nz, invalid_id
                           1666 			;; player 2
   0887 3E 28         [ 7] 1667 			ld	a, #CENTER_LIMIT				;; A <= Ent_x, integer part
   0889 DD BE 00      [19] 1668 			cp	Ent_x_I(ix)
   088C 38 18         [12] 1669 			jr	c, not_crossed				;; Ent_x <= CENTER_LIMIT? center crossed
                           1670 				;; center limit crossed
   088E DD 36 00 28   [19] 1671 				ld	Ent_x_I(ix), #CENTER_LIMIT
   0892 18 12         [12] 1672 				jr not_crossed
                           1673 
   0894                    1674 	player_1:
   0894 DD 7E 00      [19] 1675 			ld	a, Ent_x_I(ix)				;; A <= Ent_x, integer part
   0897 DD 86 05      [19] 1676 			add	a, Ent_w(ix)				;; A <= Ent_x + Ent_w
   089A FE 28         [ 7] 1677 			cp	#CENTER_LIMIT
   089C 38 08         [12] 1678 			jr	c, not_crossed				;; Ent_x + Ent_w > CENTER_LIMIT? center crossed
                           1679 				;; center limit crossed
   089E 3E 28         [ 7] 1680 				ld	a, #CENTER_LIMIT
   08A0 DD 96 05      [19] 1681 				sub	Ent_w(ix)			;; A <= CENTER_LIMIT - Ent_w
   08A3 DD 77 00      [19] 1682 				ld	Ent_x_I(ix), a			;; Ent_x = CENTER_LIMIT - Ent_w
                           1683 
   08A6                    1684 	invalid_id:
   08A6                    1685 	not_crossed:
   08A6 C9            [10] 1686 	ret
                           1687 
                           1688 
                           1689 ;; ====================================
                           1690 ;; Lee la entrada del teclado
                           1691 ;; Entrada:
                           1692 ;; 	IX <= pointer to entity data
                           1693 ;; Modifica AF, BC, DE, HL, IX
                           1694 ;; ====================================
   08A7                    1695 checkUserInput:
   08A7 CD 00 00      [17] 1696 	call cpct_scanKeyboard_asm						;;;;; TO DO DESACOPLAR ESTE CDIGO PARA QUE JUEGUEN 2 JUGADORES ;;;;;;;;;;
                           1697 
   08AA DD 7E 1A      [19] 1698 	ld 	a, Ent_id(ix)
   08AD FE 01         [ 7] 1699 	cp	#1
   08AF C2 E8 08      [10] 1700 	jp	nz, player_2
                           1701 		;; Player 1
   08B2 21 07 20      [10] 1702 		ld 	hl, #Key_D			;; HL = D Keycode
   08B5 CD 00 00      [17] 1703 		call 	cpct_isKeyPressed_asm 		;; A = True/False
   08B8 FE 00         [ 7] 1704 		cp 	#0 				;; A == 0?
   08BA 28 03         [12] 1705 		jr 	z, d_not_pressed
                           1706 			;; D is pressed
   08BC CD 58 08      [17] 1707 			call 	moveRight	
   08BF                    1708 		d_not_pressed:
                           1709 
   08BF 21 08 20      [10] 1710 		ld 	hl, #Key_A			;; HL = A Keycode
   08C2 CD 00 00      [17] 1711 		call 	cpct_isKeyPressed_asm 		;; A = True/False
   08C5 FE 00         [ 7] 1712 		cp 	#0 				;; A == 0?
   08C7 28 03         [12] 1713 		jr 	z, a_not_pressed
                           1714 			;; A is pressed	
   08C9 CD 6A 08      [17] 1715 			call 	moveLeft
ASxxxx Assembler V02.00 + NoICE + SDCC mods  (Zilog Z80 / Hitachi HD64180), page 42.
Hexadecimal [16-Bits]



   08CC                    1716 		a_not_pressed:
                           1717 
   08CC 21 07 08      [10] 1718 		ld 	hl, #Key_W			;; HL = W Keycode
   08CF CD 00 00      [17] 1719 		call 	cpct_isKeyPressed_asm 		;; A = True/False
   08D2 FE 00         [ 7] 1720 		cp 	#0 				;; A == 0?
   08D4 28 03         [12] 1721 		jr 	z, w_not_pressed
                           1722 			;; W is pressed
   08D6 CD 73 08      [17] 1723 			call 	moveUp	
   08D9                    1724 		w_not_pressed:
                           1725 
   08D9 21 07 10      [10] 1726 		ld 	hl, #Key_S			;; HL = S Keycode
   08DC CD 00 00      [17] 1727 		call 	cpct_isKeyPressed_asm 		;; A = True/False
   08DF FE 00         [ 7] 1728 		cp 	#0 				;; A == 0?
   08E1 28 03         [12] 1729 		jr 	z, s_not_pressed
                           1730 			;; S is pressed	
   08E3 CD 61 08      [17] 1731 			call 	moveDown
   08E6                    1732 		s_not_pressed:
   08E6 18 34         [12] 1733 		jr five_not_pressed
                           1734 
   08E8                    1735 	player_2:
   08E8 21 00 10      [10] 1736 		ld 	hl, #Key_F6			;; HL = F6 Keycode
   08EB CD 00 00      [17] 1737 		call 	cpct_isKeyPressed_asm 		;; A = True/False
   08EE FE 00         [ 7] 1738 		cp 	#0 				;; A == 0?
   08F0 28 03         [12] 1739 		jr 	z, six_not_pressed
                           1740 			;; D is pressed
   08F2 CD 58 08      [17] 1741 			call 	moveRight	
   08F5                    1742 		six_not_pressed:
                           1743 
   08F5 21 02 10      [10] 1744 		ld 	hl, #Key_F4			;; HL = F4 Keycode
   08F8 CD 00 00      [17] 1745 		call 	cpct_isKeyPressed_asm 		;; A = True/False
   08FB FE 00         [ 7] 1746 		cp 	#0 				;; A == 0?
   08FD 28 03         [12] 1747 		jr 	z, four_not_pressed
                           1748 			;; A is pressed	
   08FF CD 6A 08      [17] 1749 			call 	moveLeft
   0902                    1750 		four_not_pressed:
                           1751 
   0902 21 01 08      [10] 1752 		ld 	hl, #Key_F8			;; HL = F8 Keycode
   0905 CD 00 00      [17] 1753 		call 	cpct_isKeyPressed_asm 		;; A = True/False
   0908 FE 00         [ 7] 1754 		cp 	#0 				;; A == 0?
   090A 28 03         [12] 1755 		jr 	z, eight_not_pressed
                           1756 			;; W is pressed
   090C CD 73 08      [17] 1757 			call 	moveUp	
   090F                    1758 		eight_not_pressed:
                           1759 
   090F 21 01 10      [10] 1760 		ld 	hl, #Key_F5			;; HL = F5 Keycode
   0912 CD 00 00      [17] 1761 		call 	cpct_isKeyPressed_asm 		;; A = True/False
   0915 FE 00         [ 7] 1762 		cp 	#0 				;; A == 0?
   0917 28 03         [12] 1763 		jr 	z, five_not_pressed
                           1764 			;; S is pressed	
   0919 CD 61 08      [17] 1765 			call 	moveDown
   091C                    1766 		five_not_pressed:
                           1767 
                           1768 
                           1769 
   091C CD 20 09      [17] 1770 	call checkVandB
ASxxxx Assembler V02.00 + NoICE + SDCC mods  (Zilog Z80 / Hitachi HD64180), page 43.
Hexadecimal [16-Bits]



   091F C9            [10] 1771 	ret
                           1772 
                           1773 
                           1774 ;; ====================================
                           1775 ;; Funcion auxiliar para leer V y B
                           1776 ;;	de la entrada por teclado
                           1777 ;; Entrada:
                           1778 ;; 	IX <= pointer to entity data
                           1779 ;; Modifica AF, BC, DE, HL
                           1780 ;; ====================================
   0920                    1781 checkVandB:
   0920 DD E5         [15] 1782 	push 	ix
   0922 CD 51 08      [17] 1783 	call 	checkFrisbeeCollision 	;; A == collision/no_collision
   0925 DD E1         [14] 1784 	pop 	ix
   0927 FE 00         [ 7] 1785 	cp 	#0			;; A == 0?
   0929 CA D5 09      [10] 1786 	jp	z, no_collision 	;; checkFrisbeeCollision == 0?
                           1787 		;; There is collision
                           1788 
   092C DD 7E 1A      [19] 1789 		ld 	a, Ent_id(ix)
   092F FE 01         [ 7] 1790 		cp	#1
   0931 20 54         [12] 1791 		jr	nz, player_2_vorb
                           1792 			;; Player 1
                           1793 
   0933 21 06 80      [10] 1794 			ld 	hl, #Key_V			;; HL = V Keycode
   0936 CD 00 00      [17] 1795 			call 	cpct_isKeyPressed_asm 		;; A = True/False
   0939 FE 00         [ 7] 1796 			cp 	#0 				;; A == 0?
   093B 28 22         [12] 1797 			jr 	z, v_not_pressed
                           1798 				;; V is pressed	
   093D 21 06 40      [10] 1799 				ld 	hl, #Key_B			;; HL = B Keycode
   0940 CD 00 00      [17] 1800 				call 	cpct_isKeyPressed_asm 		;; A = True/False
   0943 FE 00         [ 7] 1801 				cp 	#0 				;; A == 0?
   0945 28 0C         [12] 1802 				jr 	z, just_v_pressed
                           1803 					;; V and B are pressed
   0947 21 00 00      [10] 1804 					ld 	hl, #0			;; HL <= standard effect
   094A DD E5         [15] 1805 					push 	ix
   094C CD 00 00      [17] 1806 					call frisbee_setEffect		;; efecto hacia abajo
   094F DD E1         [14] 1807 					pop 	ix
   0951 18 20         [12] 1808 					jr vorb_pressed
   0953                    1809 				just_v_pressed:
   0953 21 F8 FF      [10] 1810 					ld 	hl, #std_N_eff		;; HL <= -standard effect
   0956 DD E5         [15] 1811 					push 	ix
   0958 CD 00 00      [17] 1812 					call frisbee_setEffect		;; efecto hacia arriba
   095B DD E1         [14] 1813 					pop 	ix
   095D 18 14         [12] 1814 					jr 	vorb_pressed
   095F                    1815 			v_not_pressed:
                           1816 
   095F 21 06 40      [10] 1817 				ld 	hl, #Key_B			;; HL = B Keycode
   0962 CD 00 00      [17] 1818 				call 	cpct_isKeyPressed_asm 		;; A = True/False
   0965 FE 00         [ 7] 1819 				cp 	#0 				;; A == 0?
   0967 28 6C         [12] 1820 				jr 	z, b_not_pressed
                           1821 					;; B is pressed
   0969 21 08 00      [10] 1822 					ld 	hl, #std_eff		;; HL <= standard effect
   096C DD E5         [15] 1823 					push 	ix
   096E CD 00 00      [17] 1824 					call frisbee_setEffect		;; efecto hacia abajo
   0971 DD E1         [14] 1825 					pop 	ix
ASxxxx Assembler V02.00 + NoICE + SDCC mods  (Zilog Z80 / Hitachi HD64180), page 44.
Hexadecimal [16-Bits]



                           1826 
   0973                    1827 					vorb_pressed:
   0973 DD 7E 1A      [19] 1828 					ld	a, Ent_id(ix)		;;
   0976 DD 66 06      [19] 1829 					ld	h, Ent_vx_I(ix)		;;
   0979 DD 6E 07      [19] 1830 					ld	l, Ent_vx_F(ix)		;;
   097C DD 56 08      [19] 1831 					ld	d, Ent_vy_I(ix)		;;
   097F DD 5E 09      [19] 1832 					ld	e, Ent_vy_F(ix)		;;
   0982 CD 00 00      [17] 1833 					call frisbee_setVelocities	;; transferimos las velocidades de la entidad al frisbee
                           1834 
   0985 18 4E         [12] 1835 					jr o_not_pressed
   0987                    1836 	player_2_vorb:
                           1837 
   0987 21 04 08      [10] 1838 			ld 	hl, #Key_I			;; HL = I Keycode
   098A CD 00 00      [17] 1839 			call 	cpct_isKeyPressed_asm 		;; A = True/False
   098D FE 00         [ 7] 1840 			cp 	#0 				;; A == 0?
   098F 28 1E         [12] 1841 			jr 	z, i_not_pressed
                           1842 				;; I is pressed	
   0991 21 04 04      [10] 1843 				ld 	hl, #Key_O			;; HL = O Keycode
   0994 CD 00 00      [17] 1844 				call 	cpct_isKeyPressed_asm 		;; A = True/False
   0997 FE 00         [ 7] 1845 				cp 	#0 				;; A == 0?
   0999 28 08         [12] 1846 				jr 	z, just_i_pressed
                           1847 					;; I and O are pressed
   099B 21 00 00      [10] 1848 					ld 	hl, #0			;; HL <= standard effect
   099E CD 00 00      [17] 1849 					call frisbee_setEffect		;; efecto hacia abajo
   09A1 18 20         [12] 1850 					jr ioro_pressed
   09A3                    1851 				just_i_pressed:
   09A3 21 F8 FF      [10] 1852 					ld 	hl, #std_N_eff		;; HL <= -standard effect
   09A6 DD E5         [15] 1853 					push 	ix
   09A8 CD 00 00      [17] 1854 					call frisbee_setEffect		;; efecto hacia arriba
   09AB DD E1         [14] 1855 					pop 	ix
   09AD 18 14         [12] 1856 					jr 	ioro_pressed
   09AF                    1857 			i_not_pressed:
                           1858 
   09AF 21 04 04      [10] 1859 				ld 	hl, #Key_O			;; HL = O Keycode
   09B2 CD 00 00      [17] 1860 				call 	cpct_isKeyPressed_asm 		;; A = True/False
   09B5 FE 00         [ 7] 1861 				cp 	#0 				;; A == 0?
   09B7 28 1C         [12] 1862 				jr 	z, o_not_pressed
                           1863 					;; O is pressed
   09B9 21 08 00      [10] 1864 					ld 	hl, #std_eff		;; HL <= standard effect
   09BC DD E5         [15] 1865 					push 	ix
   09BE CD 00 00      [17] 1866 					call frisbee_setEffect		;; efecto hacia abajo
   09C1 DD E1         [14] 1867 					pop 	ix
                           1868 
   09C3                    1869 					ioro_pressed:
   09C3 DD 7E 1A      [19] 1870 					ld	a, Ent_id(ix)		;;
   09C6 DD 66 06      [19] 1871 					ld	h, Ent_vx_I(ix)		;;
   09C9 DD 6E 07      [19] 1872 					ld	l, Ent_vx_F(ix)		;;
   09CC DD 56 08      [19] 1873 					ld	d, Ent_vy_I(ix)		;;
   09CF DD 5E 09      [19] 1874 					ld	e, Ent_vy_F(ix)		;;
   09D2 CD 00 00      [17] 1875 					call frisbee_setVelocities	;; transferimos las velocidades de la entidad al frisbee
                           1876 
                           1877 
   09D5                    1878 	no_collision:
   09D5                    1879 	b_not_pressed:
   09D5                    1880 	o_not_pressed:
ASxxxx Assembler V02.00 + NoICE + SDCC mods  (Zilog Z80 / Hitachi HD64180), page 45.
Hexadecimal [16-Bits]



   09D5 C9            [10] 1881 	ret
