ASxxxx Assembler V02.00 + NoICE + SDCC mods  (Zilog Z80 / Hitachi HD64180), page 1.
Hexadecimal [16-Bits]



                              1 .area _DATA
                              2 .area _CODE
ASxxxx Assembler V02.00 + NoICE + SDCC mods  (Zilog Z80 / Hitachi HD64180), page 2.
Hexadecimal [16-Bits]



                              3 .include "utility.h.s"
                              1 ;; ====================================
                              2 ;; ====================================
                              3 ;; INCLUDED CPCTELERA FUNCTIONS
                              4 ;; ====================================
                              5 ;; ====================================
                              6 .globl cpct_waitVSYNC_asm
                              7 .globl cpct_drawSolidBox_asm
                              8 .globl cpct_getScreenPtr_asm
                              9 .globl cpct_scanKeyboard_asm
                             10 .globl cpct_isKeyPressed_asm
                             11 .globl cpct_disableFirmware_asm
                             12 .globl cpct_setVideoMode_asm
                             13 .globl cpct_setPalette_asm
                             14 .globl cpct_memcpy_asm
                             15 .globl negateHL
                             16 .globl cpct_setVideoMemoryPage_asm
                             17 .globl cpct_akp_musicPlay_asm
                             18 .globl cpct_akp_stop_asm
                             19 .globl cpct_drawSprite_asm
                             20 .globl cpct_setInterruptHandler_asm
                             21 .globl cpct_setPALColour_asm
                             22 .globl cpct_drawStringM2_asm
                             23 .globl cpct_drawStringM1_asm
                             24 .globl cpct_etm_setTileset2x4_asm
                             25 .globl cpct_etm_drawTileBox2x4_asm
                             26 .globl cpct_etm_drawTilemap2x4_f_asm
                             27 .globl cpct_drawSpriteMaskedAlignedTable_asm
                             28 .globl cpct_drawSpriteMasked_asm
ASxxxx Assembler V02.00 + NoICE + SDCC mods  (Zilog Z80 / Hitachi HD64180), page 3.
Hexadecimal [16-Bits]



                              4 .include "sprites.h.s"
                              1 .globl _sprite_palette
                              2 
                              3 .globl _sprite_robot_1_0
                              4 .globl _sprite_robot_1_1
                              5 
                              6 .globl _sprite_robot_2_0
                              7 .globl _sprite_robot_2_1
                              8 
                              9 .globl _sprite_frisbee_1_0
                             10 .globl _sprite_frisbee_1_1
                             11 
                             12 ;; MAP
                             13 .globl _map_tileset
                             14 .globl _tilemap
                             15 	
                             16 ;; ":"
                             17 .globl _sprite_points
                             18 ;; "0, 1, 2, 3, 4, 5, 6, 7, 8, 9"
                             19 .globl _sprite_numbers_09
                             20 .globl _sprite_numbers_08
                             21 .globl _sprite_numbers_07
                             22 .globl _sprite_numbers_06
                             23 .globl _sprite_numbers_05
                             24 .globl _sprite_numbers_04
                             25 .globl _sprite_numbers_03
                             26 .globl _sprite_numbers_02
                             27 .globl _sprite_numbers_01
                             28 .globl _sprite_numbers_00
ASxxxx Assembler V02.00 + NoICE + SDCC mods  (Zilog Z80 / Hitachi HD64180), page 4.
Hexadecimal [16-Bits]



                              5 .include "game.h.s"
                              1 ;; ====================================
                              2 ;; ====================================
                              3 ;; GAME PUBLIC FUNCTIONS
                              4 ;; ====================================
                              5 ;; ====================================
                              6 .globl gameStart
                              7 .globl getVideoPtr
                              8 .globl incTeam1Points
                              9 .globl incTeam2Points
                             10 .globl player_data
                             11 .globl enemy_data
                             12 .globl player2_data
                             13 .globl enemy2_data
                             14 .globl game_data
                             15 .globl paletteM1
                             16 .globl paletteM2
                             17 ;;.globl paletteM0
                             18 .globl blackPaletteM1
                             19 ;; ====================================
                             20 ;; ====================================
                             21 ;; GAME PUBLIC DATA
                             22 ;; ====================================
                             23 ;; ====================================
                     0050    24 .equ RIGHT_LIMIT,	80
                     0000    25 .equ LEFT_LIMIT,	0
                     0020    26 .equ TOP_LIMIT,	 	32
                     00C8    27 .equ BOTTOM_LIMIT,	200
                     0028    28 .equ CENTER_LIMIT,	40
                             29 
                             30 
                     002A    31 .equ map_tH, 42
                     0028    32 .equ map_tW, 40
ASxxxx Assembler V02.00 + NoICE + SDCC mods  (Zilog Z80 / Hitachi HD64180), page 5.
Hexadecimal [16-Bits]



                              6 
                              7 
                              8 
                              9 ;; ====================================
                             10 ;; ====================================
                             11 ;; PUBLIC DATA
                             12 ;; ====================================
                             13 ;; ====================================
                     0000    14 .equ Ent_x_I, 		0	;; X coordinate, integer part
                     0001    15 .equ Ent_x_F, 		1	;; X coordinate, fractional part
                     0002    16 .equ Ent_y_I, 		2	;; Y coordinate, integer part
                     0003    17 .equ Ent_y_F, 		3	;; Y coordinate, fractional part
                     0004    18 .equ Ent_h, 		4	;; Height
                     0005    19 .equ Ent_w, 		5	;; Width
                     0006    20 .equ Ent_vx_I,		6	;; Velocity at X axis, integer part
                     0007    21 .equ Ent_vx_F,		7	;; Velocity at X axis, fractional part
                     0008    22 .equ Ent_vy_I,		8	;; Velocity at Y axis, integer part
                     0009    23 .equ Ent_vy_F,		9	;; Velocity at Y axis, fractional part
                     000A    24 .equ Ent_ax_I,		10	;; Acceleration at X axis, integer part
                     000B    25 .equ Ent_ax_F,		11	;; Acceleration at X axis, fractional part
                     000C    26 .equ Ent_ay_I,		12	;; Acceleration at Y axis, integer part
                     000D    27 .equ Ent_ay_F,		13	;; Acceleration at Y axis, fractional part
                     000E    28 .equ Ent_N_I,		14	;; Normal force, integer part
                     000F    29 .equ Ent_N_F,		15	;; Normal force, fractional part
                     0010    30 .equ Ent_last_x,	16	;; Last x rendered
                     0011    31 .equ Ent_erase_x,	17	;; x rendered at same buffer
                     0012    32 .equ Ent_last_y,	18	;; Last y rendered
                     0013    33 .equ Ent_erase_y,	19	;; y rendered at same buffer
                     0014    34 .equ Ent_state,		20	;; Entity animation state
                     0015    35 .equ Ent_lastState,	21	;; Last entity animation state
                     0016    36 .equ Ent_signal,	22	;; Signar for animations
                     0017    37 .equ Ent_sprite, 	23	;; Entity sprite index
                     0018    38 .equ Ent_sprites_ptr_H, 24	;; Pointer to sprite, high part
                     0019    39 .equ Ent_sprites_ptr_L, 25	;; Pointer to sprite, high part
                     001A    40 .equ Ent_id, 		26	;; Numeric ID
                             41 				;; Frisbee 	0
                             42 				;; Player1 	1
                             43 				;; Enemy1	2
                             44 
                     0003    45 .equ MAX_VEL_X, 3 
                     FFFFFFFD    46 .equ MIN_VEL_X, -3
                     0003    47 .equ MAX_VEL_Y, 3
                     FFFFFFFD    48 .equ MIN_VEL_Y, -3
                             49 
                             50 
                             51 ;; Sprite pointers vectors
   0000                      52 robot_1_sprites::
   0000 00 00                53 	.dw	#_sprite_robot_1_0
   0002 00 00                54 	.dw	#_sprite_robot_1_1
                             55 
   0004                      56 robot_2_sprites::
   0004 00 00                57 	.dw	#_sprite_robot_2_0
   0006 00 00                58 	.dw	#_sprite_robot_2_1
                             59 
   0008                      60 frisbee_sprites::
ASxxxx Assembler V02.00 + NoICE + SDCC mods  (Zilog Z80 / Hitachi HD64180), page 6.
Hexadecimal [16-Bits]



   0008 00 00                61 	.dw	#_sprite_frisbee_1_0
   000A 00 00                62 	.dw	#_sprite_frisbee_1_1
                             63 
                             64 
                             65 ;; ====================================
                             66 ;; ====================================
                             67 ;; PUBLIC FUNCTIONS
                             68 ;; ====================================
                             69 ;; ====================================
                             70 
                             71 ;; ===================================
                             72 ;; Pinta una entidad en pantalla
                             73 ;; Entrada:
                             74 ;; 	IX => Pointer to entity data 
                             75 ;; Modifica AF, BC, DE, HL
                             76 ;; ===================================
   000C                      77 entityDraw::
   000C CD 00 00      [17]   78 	call 	getVideoPtr		;; HL <= Video memory pointer
   000F EB            [ 4]   79 	ex 	de, hl			;; DE <= HL (Video memory pointer)
   0010 DD 4E 00      [19]   80 	ld 	c, Ent_x_I(ix) 		;; C = ent_x_I
   0013 DD 46 02      [19]   81 	ld 	b, Ent_y_I(ix) 		;; B = ent_y_I
   0016 CD 00 00      [17]   82 	call cpct_getScreenPtr_asm 	;; HL = ent screen pointer
                             83 
   0019 EB            [ 4]   84 	ex 	de, hl 			;; DE = ent screen pointer
                             85 
   001A DD 66 19      [19]   86 	ld	h, Ent_sprites_ptr_L(ix)	;;
   001D DD 6E 18      [19]   87 	ld	l, Ent_sprites_ptr_H(ix)	;; HL <= Pointer to sprites vector
                             88 
   0020 DD 7E 17      [19]   89 	ld	a, Ent_sprite(ix)	;; A <= sprite index
                             90 
   0023                      91 	index_loop_2:
   0023 FE 00         [ 7]   92 	cp	#0
   0025 28 05         [12]   93 	jr	z, load_sprite_2		;; A == 0?
                             94 		;; A (sprite) != 0
   0027 23            [ 6]   95 		inc 	hl
   0028 23            [ 6]   96 		inc 	hl		;; HL points 2 bytes ahead
   0029 3D            [ 4]   97 		dec 	a		;; a--
   002A 18 F7         [12]   98 		jr index_loop_2
                             99 
   002C                     100 	load_sprite_2:
   002C 46            [ 7]  101 	ld 	b, (hl)			;;
   002D 23            [ 6]  102 	inc 	hl			;;
   002E 4E            [ 7]  103 	ld	c, (hl)			;; BC <= Sprite pointer
   002F 61            [ 4]  104 	ld 	h, c			;;
   0030 68            [ 4]  105 	ld 	l, b			;; HL <= BC
                            106 
   0031 DD 46 04      [19]  107 	ld 	b, Ent_h(ix) 		;; B = ent height
   0034 DD 4E 05      [19]  108 	ld 	c, Ent_w(ix) 		;; C = ent width
   0037 CD 00 00      [17]  109 	call cpct_drawSpriteMasked_asm
                            110 
   003A CD 54 02      [17]  111 	call updateX
   003D CD 68 02      [17]  112 	call updateY
                            113 
                            114 
                            115 ;; ===================================
ASxxxx Assembler V02.00 + NoICE + SDCC mods  (Zilog Z80 / Hitachi HD64180), page 7.
Hexadecimal [16-Bits]



                            116 ;; Borra una entidad de la pantalla
                            117 ;; Entrada:
                            118 ;; 	IX => Pointer to entity data 
                            119 ;; Modifica AF, BC, DE, HL
                            120 ;; ===================================
   0040                     121 entityErase::
   0040 CD 00 00      [17]  122 	call 	getVideoPtr		;; HL <= Video memory pointer
   0043 EB            [ 4]  123 	ex 	de, hl			;; DE <= HL (Video memory pointer)
   0044 DD 4E 11      [19]  124 	ld 	c, Ent_erase_x(ix)	;; C <= ent_erase_x
   0047 DD 46 13      [19]  125 	ld 	b, Ent_erase_y(ix)	;; B <= ent_erase_y
   004A CD 00 00      [17]  126 	call cpct_getScreenPtr_asm 	;; HL <= ent screen pointer
                            127 
                            128 ;	ex 	de, hl 			;; DE <= ent screen pointer
                            129 ;	ld 	a, #0x00 		;; A <= background color
                            130 ;	ld 	b, Ent_h(ix) 		;; B <= ent height
                            131 ;	ld 	c, Ent_w(ix) 		;; C <= ent width
                            132 ;	call cpct_drawSolidBox_asm
                            133 
   004D C9            [10]  134 	ret
                            135 
                            136 ;; ===================================
                            137 ;; Borra una entidad de la pantalla
                            138 ;; Entrada:
                            139 ;; 	IX => Pointer to entity data 
                            140 ;; Modifica AF, BC, DE, HL
                            141 ;; ===================================
   004E                     142 entityErase_2::
   004E DD 7E 11      [19]  143 	ld	a, Ent_erase_x(ix)	;; A <= ent_erase_x
   0051 CB 2F         [ 8]  144 	sra 	a			;; A <= A/2
   0053 4F            [ 4]  145 	ld	c, a 			;; C <= ent_erase_x/2
                            146 
   0054 DD 7E 13      [19]  147 	ld	a, Ent_erase_y(ix)	;; A <= ent_erase_y
   0057 CB 2F         [ 8]  148 	sra 	a			;;
   0059 CB 2F         [ 8]  149 	sra 	a			;; A <= A/4
   005B 47            [ 4]  150 	ld	b, a 			;; B <= ent_erase_y/4
                            151 
                            152 
   005C 21 00 00      [10]  153 	ld	hl, #_tilemap	;; Pointer to tilemap
   005F E5            [11]  154 	push 	hl
   0060 CD 00 00      [17]  155 	call 	getVideoPtr	;; HL <= Video memory pointer
   0063 E5            [11]  156 	push	hl		;; Videomem pointer to draw
   0064 1E 05         [ 7]  157 	ld	e, #5
   0066 16 05         [ 7]  158 	ld	d, #5
   0068 3E 28         [ 7]  159 	ld	a, #map_tW
   006A CD 00 00      [17]  160 	call cpct_etm_drawTileBox2x4_asm
                            161 
   006D C9            [10]  162 	ret
                            163 
                            164 
                            165  ;;   ;; Set Parameters on the stack
                            166  ;;   ld   hl, #ptilemap   ;; HL = pointer to the tilemap
                            167  ;;   push hl              ;; Push ptilemap to the stack
                            168  ;;   ld   hl, #pvideomem  ;; HL = Pointer to video memory location where tilemap is drawn
                            169  ;;   push hl              ;; Push pvideomem to the stack
                            170  ;;   ;; Set Paramters on registers
ASxxxx Assembler V02.00 + NoICE + SDCC mods  (Zilog Z80 / Hitachi HD64180), page 8.
Hexadecimal [16-Bits]



                            171  ;;   ld    a, #map_width  ;; A = map_width
                            172  ;;   ld    b, #y          ;; B = x tile-coordinate
                            173  ;;   ld    c, #x          ;; C = y tile-coordinate
                            174  ;;   ld    d, #h          ;; H = height in tiles of the tile-box
                            175  ;;   ld    e, #w          ;; L =  width in tiles of the tile-box
                            176  ;;   call  cpct_etm_drawTileBox2x4_asm ;; Call the function
                            177 
                            178 ;; =========================================
                            179 ;; Actualiza el estado de las físicas
                            180 ;; 	de una entidad
                            181 ;; Entrada:
                            182 ;; 	IX => Pointer to entity data
                            183 ;; Modifica F, DE, HL
                            184 ;; =========================================
   006E                     185 entityUpdatePhysics::
                            186 	;; vx' = vx + ax
   006E DD 66 06      [19]  187 	ld 	h, Ent_vx_I(ix)
   0071 DD 6E 07      [19]  188 	ld 	l, Ent_vx_F(ix)		;; HL <= ent_vx
   0074 DD 56 0A      [19]  189 	ld 	d, Ent_ax_I(ix)
   0077 DD 5E 0B      [19]  190 	ld 	e, Ent_ax_F(ix)		;; DE <= ent_ax
                            191 
   007A 19            [11]  192 	add 	hl, de 			;; HL <= HL + DE (ent_vx + ent_ax)
                            193 
   007B 7C            [ 4]  194 	ld 	a, h
   007C FE 03         [ 7]  195 	cp 	#MAX_VEL_X
   007E F2 8C 00      [10]  196 	jp 	p, cant_accelerate_x
                            197 		;; vx' < MAX_VEL_X
   0081 FE FD         [ 7]  198 		cp 	#MIN_VEL_X
   0083 FA 8C 00      [10]  199 		jp 	m, cant_accelerate_x
                            200 			;; vx' > MIN_VEL_X
                            201 			;; Can accelerate at X axis
   0086 DD 74 06      [19]  202 			ld 	Ent_vx_I(ix), h
   0089 DD 75 07      [19]  203 			ld 	Ent_vx_F(ix), l		;; Ent_vx <= HL
                            204 
   008C                     205 	cant_accelerate_x:
                            206 	;; vx' > MAX_VEL_X || vx' < MIN_VEL_X
                            207 
                            208 
                            209 	;; vy = vy + ay
   008C DD 66 08      [19]  210 	ld 	h, Ent_vy_I(ix)
   008F DD 6E 09      [19]  211 	ld 	l, Ent_vy_F(ix)		;; HL <= ent_vy
   0092 DD 56 0C      [19]  212 	ld 	d, Ent_ay_I(ix)
   0095 DD 5E 0D      [19]  213 	ld 	e, Ent_ay_F(ix)		;; DE <= ent_ay
                            214 
   0098 19            [11]  215 	add 	hl, de 			;; HL <= HL + DE (ent_vy + ent_ay)
   0099 7C            [ 4]  216 	ld 	a, h
   009A FE 03         [ 7]  217 	cp 	#MAX_VEL_Y
   009C F2 AA 00      [10]  218 	jp 	p, cant_accelerate_y
                            219 		;; vy' < MIN_VEL_Y
   009F FE FD         [ 7]  220 		cp 	#MIN_VEL_Y
   00A1 FA AA 00      [10]  221 		jp 	m, cant_accelerate_y
                            222 			;; vy' > MIN_VEL_Y
                            223 			;; Can accelerate at Y axis
   00A4 DD 74 08      [19]  224 			ld 	Ent_vy_I(ix), h
   00A7 DD 75 09      [19]  225 			ld 	Ent_vy_F(ix), l		;; Ent_vy <= HL
ASxxxx Assembler V02.00 + NoICE + SDCC mods  (Zilog Z80 / Hitachi HD64180), page 9.
Hexadecimal [16-Bits]



                            226 
   00AA                     227 	cant_accelerate_y:
                            228 
                            229 	;; Apply deceleration X axis
   00AA DD 7E 06      [19]  230 	ld 	a, Ent_vx_I(ix)		;; A <= vx_I
   00AD FE 00         [ 7]  231 	cp 	#0
   00AF 28 37         [12]  232 	jr	z, check_ax
                            233 
   00B1                     234 	check_vx:
   00B1 DD 7E 06      [19]  235 		ld 	a, Ent_vx_I(ix)		;; A <= vx_I
   00B4 FE 00         [ 7]  236 		cp 	#0
   00B6 FA CF 00      [10]  237 		jp	m, vx_negative
                            238 			;; vx positive
                            239 
   00B9 DD 66 0E      [19]  240 			ld 	h, Ent_N_I(ix)
   00BC DD 6E 0F      [19]  241 			ld 	l, Ent_N_F(ix)		;; HL <= ent_N
                            242 
   00BF CD 44 02      [17]  243 			call 	negateHL		;; HL <= -ent_N
                            244 
   00C2 54            [ 4]  245 			ld 	d, h
   00C3 5D            [ 4]  246 			ld 	e, l			;; DE <= -ent_N
                            247 
   00C4 DD 66 06      [19]  248 			ld 	h, Ent_vx_I(ix)
   00C7 DD 6E 07      [19]  249 			ld 	l, Ent_vx_F(ix)		;; HL <= ent_vx
                            250 
   00CA 19            [11]  251 			add 	hl, de
   00CB 38 13         [12]  252 			jr	c, can_decelerate_x
                            253 
   00CD 18 36         [12]  254 			jr cant_decelerate_x
                            255 
   00CF                     256 		vx_negative:
   00CF 28 34         [12]  257 			jr 	z, cant_decelerate_x	;; vx_I == 0?
                            258 
   00D1 DD 66 06      [19]  259 			ld 	h, Ent_vx_I(ix)
   00D4 DD 6E 07      [19]  260 			ld 	l, Ent_vx_F(ix)		;; HL <= ent_vx
   00D7 DD 56 0E      [19]  261 			ld 	d, Ent_N_I(ix)
   00DA DD 5E 0F      [19]  262 			ld 	e, Ent_N_F(ix)		;; DE <= ent_N
                            263 
   00DD 19            [11]  264 			add 	hl, de
   00DE 38 00         [12]  265 			jr	c, can_decelerate_x
                            266 
   00E0                     267 			can_decelerate_x:
   00E0 DD 74 06      [19]  268 				ld 	Ent_vx_I(ix), h
   00E3 DD 75 07      [19]  269 				ld 	Ent_vx_F(ix), l		;; Ent_vx <= HL
                            270 
   00E6 18 1D         [12]  271 				jr cant_decelerate_x
   00E8                     272 	check_ax:
   00E8 DD 7E 0A      [19]  273 		ld	a, Ent_ax_I(ix)
   00EB FE 00         [ 7]  274 		cp 	#0
   00ED 20 C2         [12]  275 		jr	nz, check_vx
   00EF DD 7E 0B      [19]  276 		ld	a, Ent_ax_F(ix)
   00F2 FE 00         [ 7]  277 		cp 	#0
   00F4 20 BB         [12]  278 		jr	nz, check_vx
                            279 			;; vx_I == 0 && ax == 0
   00F6 DD 7E 1A      [19]  280 			ld	a, Ent_id(ix)
ASxxxx Assembler V02.00 + NoICE + SDCC mods  (Zilog Z80 / Hitachi HD64180), page 10.
Hexadecimal [16-Bits]



   00F9 FE 00         [ 7]  281 			cp	#0
   00FB 28 08         [12]  282 			jr	z, cant_decelerate_x	;; If Ent_id == frisbee_id, cant_decelerate_x
                            283 
   00FD DD 36 06 00   [19]  284 			ld	Ent_vx_I(ix), #0
   0101 DD 36 07 00   [19]  285 			ld	Ent_vx_F(ix), #0	;; Ent_vx <= 0
                            286 
                            287 
   0105                     288 	cant_decelerate_x:
                            289 
                            290 	;; Apply deceleration Y axis
   0105 DD 7E 08      [19]  291 	ld 	a, Ent_vy_I(ix)		;; A <= vy_I
   0108 FE 00         [ 7]  292 	cp 	#0
   010A 28 35         [12]  293 	jr	z, check_ay
                            294 
   010C                     295 	check_vy:
   010C DD 7E 08      [19]  296 		ld 	a, Ent_vy_I(ix)		;; A <= vy_I
   010F FE 00         [ 7]  297 		cp 	#0
   0111 FA 2A 01      [10]  298 		jp	m, vy_negative
                            299 
                            300 			;; vy positive
   0114 DD 66 0E      [19]  301 			ld 	h, Ent_N_I(ix)
   0117 DD 6E 0F      [19]  302 			ld 	l, Ent_N_F(ix)		;; HL <= ent_N
                            303 
   011A CD 44 02      [17]  304 			call 	negateHL		;; HL <= -ent_N
                            305 
   011D 54            [ 4]  306 			ld 	d, h
   011E 5D            [ 4]  307 			ld 	e, l			;; DE <= -ent_N
                            308 
   011F DD 66 08      [19]  309 			ld 	h, Ent_vy_I(ix)
   0122 DD 6E 09      [19]  310 			ld 	l, Ent_vy_F(ix)		;; HL <= ent_vy
                            311 
   0125 19            [11]  312 			add 	hl, de
   0126 38 11         [12]  313 			jr	c, can_decelerate_y
                            314 
   0128 18 34         [12]  315 			jr cant_decelerate_y
                            316 
   012A                     317 		vy_negative:
   012A DD 66 08      [19]  318 			ld 	h, Ent_vy_I(ix)
   012D DD 6E 09      [19]  319 			ld 	l, Ent_vy_F(ix)		;; HL <= ent_vy
   0130 DD 56 0E      [19]  320 			ld 	d, Ent_N_I(ix)
   0133 DD 5E 0F      [19]  321 			ld 	e, Ent_N_F(ix)		;; DE <= ent_N
                            322 
   0136 19            [11]  323 			add 	hl, de
   0137 38 00         [12]  324 			jr	c, can_decelerate_y
                            325 
   0139                     326 			can_decelerate_y:
   0139 DD 74 08      [19]  327 				ld 	Ent_vy_I(ix), h
   013C DD 75 09      [19]  328 				ld 	Ent_vy_F(ix), l		;; Ent_vy <= HL
                            329 
                            330 
   013F 18 1D         [12]  331 				jr cant_decelerate_y
   0141                     332 	check_ay:
   0141 DD 7E 0C      [19]  333 		ld	a, Ent_ay_I(ix)
   0144 FE 00         [ 7]  334 		cp 	#0
   0146 20 C4         [12]  335 		jr	nz, check_vy
ASxxxx Assembler V02.00 + NoICE + SDCC mods  (Zilog Z80 / Hitachi HD64180), page 11.
Hexadecimal [16-Bits]



   0148 DD 7E 0D      [19]  336 		ld	a, Ent_ay_F(ix)
   014B FE 00         [ 7]  337 		cp 	#0
   014D 20 BD         [12]  338 		jr	nz, check_vy
                            339 			;; vy_I == 0 && ay == 0
   014F DD 7E 1A      [19]  340 			ld	a, Ent_id(ix)
   0152 FE 00         [ 7]  341 			cp	#0
   0154 28 08         [12]  342 			jr	z, cant_decelerate_y	;; If Ent_id == frisbee_id, cant_decelerate_y
                            343 			
   0156 DD 36 08 00   [19]  344 			ld	Ent_vy_I(ix), #0
   015A DD 36 09 00   [19]  345 			ld	Ent_vy_F(ix), #0	;; Ent_vy <= 0
                            346 
   015E                     347 	cant_decelerate_y:
                            348 
   015E DD 36 0A 00   [19]  349 	ld 	Ent_ax_I(ix), #0	;; 
   0162 DD 36 0B 00   [19]  350 	ld 	Ent_ax_F(ix), #0	;; ax = 0
   0166 DD 36 0C 00   [19]  351 	ld 	Ent_ay_I(ix), #0	;; 
   016A DD 36 0D 00   [19]  352 	ld 	Ent_ay_F(ix), #0	;; ay = 0
                            353 
   016E C9            [10]  354 	ret
                            355 
                            356 ;; =========================================
                            357 ;; Comprueba si existe colision entre
                            358 ;; dos entidades.
                            359 ;; Entrada:
                            360 ;; 	IX => Pointer to entity 1 data
                            361 ;; 	HL => Pointer to entity 2 data
                            362 ;; Modifica AF, B, HL, IX
                            363 ;; Devuelve:
                            364 ;; 	A <==== 0 si no hay colisión, y la
                            365 ;; 		diferencia absoluta entre
                            366 ;;		las x, en caso de colisión
                            367 ;; =========================================
   016F 00 00               368 ent1_ptr: .dw #0000
   0171 00 00               369 ent2_ptr: .dw #0000
   0173                     370 entityCheckCollision::
                            371 	;;
                            372 	;; If (ent1_x + ent1_w <= ent2_x) no collision
                            373 	;; ent1_x + ent1_w - ent2_x <= 0  no collision
                            374 	;;
   0173 DD 22 6F 01   [20]  375 	ld 	(ent1_ptr), ix 		;; ent1_ptr <= IX
   0177 22 71 01      [16]  376 	ld 	(ent2_ptr), hl 		;; ent2_ptr <= HL
                            377 
   017A DD 7E 00      [19]  378 	ld 	a, Ent_x_I(ix)		;; A <= ent1_x
   017D DD 86 05      [19]  379 	add 	Ent_w(ix)		;; A <= A + ent1_w
   0180 DD 2A 71 01   [20]  380 	ld 	ix, (ent2_ptr)		;; IX <= ent 2
   0184 DD 96 00      [19]  381 	sub 	Ent_x_I(ix)		;; A <= A - ent2_x
   0187 F2 8C 01      [10]  382 	jp 	p, collision_XR		;; A > 0? lo contrario a A <= 0
                            383 
   018A 18 39         [12]  384 	jr 	no_collision
                            385 
                            386 	;; Puede haber colisión en el eje X, ent2 está por la izda de ent1
   018C                     387 	collision_XR:
                            388 		;; Guardar en b el resultado de la anterior operación (ent1_x + ent1_w - ent2_x)
   018C 47            [ 4]  389 		ld 	b, a 		;; B <= A
                            390 		;;
ASxxxx Assembler V02.00 + NoICE + SDCC mods  (Zilog Z80 / Hitachi HD64180), page 12.
Hexadecimal [16-Bits]



                            391 		;; If (ent2_x + ent2_w <= ent1_x) no collision
                            392 		;; ent2_x + ent2_w - ent1_x <= 0
                            393 		;; 
   018D DD 7E 00      [19]  394 		ld 	a, Ent_x_I(ix)		;; A <= ent2_x
   0190 DD 86 05      [19]  395 		add 	Ent_w(ix) 		;; A <= A + ent2_w
   0193 DD 2A 6F 01   [20]  396 		ld 	ix, (ent1_ptr)		;; IX <= ent 1
   0197 DD 96 00      [19]  397 		sub 	Ent_x_I(ix)		;; A <= A - ent1_x
   019A F2 9F 01      [10]  398 		jp 	p, collision_XL		;; A > 0? lo contrario a A <= 0
                            399 
   019D 18 26         [12]  400 		jr 	no_collision
                            401 	;; Hay colisión en el eje X e Y, ent2 está entre la izda y la dcha de ent1
   019F                     402 	collision_XL:
                            403 		;;
                            404 		;; If (ent1_y + ent1_h <= ent2_y) no collision
                            405 		;; ent1_y + ent1_h - ent2_y <= 0
                            406 		;;
   019F DD 7E 02      [19]  407 		ld 	a, Ent_y_I(ix)		;; A <= ent1_x
   01A2 DD 86 04      [19]  408 		add 	Ent_h(ix)		;; A <= A + ent1_w
   01A5 DD 2A 71 01   [20]  409 		ld 	ix, (ent2_ptr)		;; IX <= ent 2
   01A9 DD 96 02      [19]  410 		sub 	Ent_y_I(ix)		;; A <= A - ent2_x
   01AC F2 B1 01      [10]  411 		jp 	p, collision_YB		;; A > 0? lo contrario a A <= 0
                            412 
   01AF 18 14         [12]  413 		jr 	no_collision
                            414 
                            415 	;; Puede haber colisión en el eje Y, ent2 está por arriba de ent1
   01B1                     416 	collision_YB:
                            417 		;;
                            418 		;; If (ent2_y + ent2_h <= ent1_y) no collision
                            419 		;; ent2_y + ent2_h - ent1_y <= 0
                            420 		;; 
   01B1 DD 7E 02      [19]  421 		ld 	a, Ent_y_I(ix)		;; A <= ent2_y
   01B4 DD 86 04      [19]  422 		add 	Ent_h(ix) 		;; A <= A + ent2_h
   01B7 DD 2A 6F 01   [20]  423 		ld 	ix, (ent1_ptr)		;; IX <= ent 1
   01BB DD 96 02      [19]  424 		sub 	Ent_y_I(ix)		;; A <= A - ent1_y
   01BE F2 C3 01      [10]  425 		jp 	p, collision_YT		;; A > 0? lo contrario a A <= 0
                            426 
   01C1 18 02         [12]  427 		jr 	no_collision
                            428 
                            429 	;; Hay colisión en el eje Y, ent2 está entre arriba y abajo de ent1
   01C3                     430 	collision_YT:
                            431 
                            432 	;; A == ent1_x + ent1_w - ent2_x, A es mínimo 1
   01C3 78            [ 4]  433 	ld 	a, b
                            434 
   01C4 C9            [10]  435 	ret
                            436 
   01C5                     437 	no_collision:
   01C5 3E 00         [ 7]  438 	ld 	a, #0 	;; A == 0 si no hay colisión
   01C7 C9            [10]  439 	ret
                            440 
                            441 
                            442 ;; =========================================
                            443 ;; Actualiza la posición de la entidad
                            444 ;; Entrada:
                            445 ;; 	IX => Pointer to entity data
ASxxxx Assembler V02.00 + NoICE + SDCC mods  (Zilog Z80 / Hitachi HD64180), page 13.
Hexadecimal [16-Bits]



                            446 ;; Modifica AF, B, DE, HL, IX
                            447 ;; =========================================
   01C8                     448 entityUpdatePosition::
                            449 
                            450 	;; x' = x + vx_I
   01C8 DD 56 06      [19]  451 	ld 	d, Ent_vx_I(ix) 	
   01CB DD 5E 07      [19]  452 	ld 	e, Ent_vx_F(ix)		;; DE <= ent_vx
                            453 
   01CE DD 66 00      [19]  454 	ld 	h, Ent_x_I(ix) 		;; 
   01D1 DD 6E 01      [19]  455 	ld 	l, Ent_x_F(ix)		;; HL <= Ent_x
                            456 
   01D4 19            [11]  457 	add 	hl, de 			;; HL <= HL + DE (x + vx)
                            458 
   01D5 7C            [ 4]  459 	ld 	a, h 			;; B <= H (x_I + vx_I) integer part
   01D6 FE 00         [ 7]  460 	cp 	#LEFT_LIMIT
   01D8 FA E9 01      [10]  461 	jp 	m, check_left		;; LIMIT_LEFT > x_I + vx_I? can't move
                            462 		;; can move left
   01DB DD 86 05      [19]  463 		add 	Ent_w(ix) 		;; A <= w + x_I + vx_I
   01DE 47            [ 4]  464 		ld	b, a
   01DF 3E 50         [ 7]  465 		ld 	a, #RIGHT_LIMIT
   01E1 B8            [ 4]  466 		cp	b
   01E2 38 0E         [12]  467 		jr 	c, check_right	;; RIGHT_LIMIT < w + x_I + vx_I? can't move
                            468 			;; can move
   01E4 CD 4D 02      [17]  469 			call setX 		;; Ent_x <= HL (x + vx)
                            470 
   01E7 18 14         [12]  471 			jr check_y
                            472 
   01E9                     473 	check_left:
   01E9 26 00         [ 7]  474 		ld 	h, #LEFT_LIMIT
   01EB 2E 00         [ 7]  475 		ld 	l, #0
   01ED CD 4D 02      [17]  476 		call	setX 			;; Ent_x <= LEFT_LIMIT
   01F0 18 0B         [12]  477 			jr check_y
                            478 
   01F2                     479 	check_right:
   01F2 3E 50         [ 7]  480 		ld 	a, #RIGHT_LIMIT
   01F4 DD 96 05      [19]  481 		sub	a, Ent_w(ix)
   01F7 67            [ 4]  482 		ld 	h, a
   01F8 2E 00         [ 7]  483 		ld 	l, #0
   01FA CD 4D 02      [17]  484 		call	setX 			;; Ent_x <= RIGHT_LIMIT
                            485 
   01FD                     486 	check_y:
                            487 	;; y' = y + vy_I*2
   01FD DD 56 08      [19]  488 	ld 	d, Ent_vy_I(ix) 	
   0200 DD 5E 09      [19]  489 	ld 	e, Ent_vy_F(ix)		;; DE <= ent_vy
                            490 
   0203 DD 66 02      [19]  491 	ld 	h, Ent_y_I(ix) 		;; 
   0206 DD 6E 03      [19]  492 	ld 	l, Ent_y_F(ix)		;; HL <= Ent_y
                            493 
   0209 19            [11]  494 	add 	hl, de 			;; HL <= HL + DE (y + vy)
   020A 19            [11]  495 	add 	hl, de 			;; HL <= HL + DE (y + vy)
                            496 
   020B 7C            [ 4]  497 	ld 	a,h	 		;; A <= H (y_I + vy_I) integer part
   020C FE 20         [ 7]  498 	cp 	#TOP_LIMIT
   020E DA 20 02      [10]  499 	jp 	c, check_top		;; TOP_LIMIT > y_I + vy_I? can't move
                            500 		;; can move up
ASxxxx Assembler V02.00 + NoICE + SDCC mods  (Zilog Z80 / Hitachi HD64180), page 14.
Hexadecimal [16-Bits]



   0211 7C            [ 4]  501 		ld 	a, h
   0212 DD 86 04      [19]  502 		add 	Ent_h(ix) 		;; A <= h + y_I + vy_I
   0215 47            [ 4]  503 		ld	b, a
   0216 3E C8         [ 7]  504 		ld 	a, #BOTTOM_LIMIT
   0218 B8            [ 4]  505 		cp	b
   0219 DA 29 02      [10]  506 		jp 	c, check_bot		;; BOTTOM_LIMIT < h + y_I + vy_I? can't move
                            507 			;; can move
   021C CD 61 02      [17]  508 			call 	setY			;; Ent_y <= HL (y + vy)
                            509 
   021F C9            [10]  510 			ret
                            511 
                            512 	;; CONTROL STRUCTURES: http://tutorials.eeems.ca/ASMin28Days/lesson/day07.html
                            513 
   0220                     514 	check_top:
   0220 26 20         [ 7]  515 		ld 	h, #TOP_LIMIT
   0222 2E 00         [ 7]  516 		ld 	l, #0
   0224 CD 61 02      [17]  517 		call 	setY				;; Ent_y <= TOP_LIMIT
   0227 18 0B         [12]  518 		jr bounce
                            519 
   0229                     520 	check_bot:
   0229 3E C8         [ 7]  521 		ld 	a, #BOTTOM_LIMIT
   022B DD 96 04      [19]  522 		sub	a, Ent_h(ix)
   022E 67            [ 4]  523 		ld 	h, a
   022F 2E 00         [ 7]  524 		ld 	l, #0
   0231 CD 61 02      [17]  525 		call 	setY				;; Ent_y <= BOTTOM_LIMIT
                            526 
   0234                     527 	bounce:
   0234 DD 66 08      [19]  528 			ld 	h, Ent_vy_I(ix)
   0237 DD 6E 09      [19]  529 			ld 	l, Ent_vy_F(ix)		;; HL <= Ent_vy
                            530 
   023A CD 44 02      [17]  531 			call 	negateHL
                            532 
   023D DD 74 08      [19]  533 			ld 	Ent_vy_I(ix), h
   0240 DD 75 09      [19]  534 			ld 	Ent_vy_F(ix), l		;; Ent_vy <= HL negated
                            535 
   0243 C9            [10]  536 		ret
                            537 
                            538 ;; ==========================================================================
                            539 ;; Inverts HL value
                            540 ;; Entrada:
                            541 ;; 	HL => value we are going to negate
                            542 ;; Modifica AF, HL
                            543 ;; Devuelve:
                            544 ;; 	HL <= HL value negated
                            545 ;; http://wikiti.brandonw.net/index.php?title=Z80_Routines:Math:Signed_Math
                            546 ;; ==========================================================================
   0244                     547 negateHL::
   0244 3E 00         [ 7]  548 	ld 	a, #0			;;
   0246 AF            [ 4]  549 	xor	a			;;
   0247 95            [ 4]  550 	sub	l			;;
   0248 6F            [ 4]  551 	ld	l,a			;;
   0249 9F            [ 4]  552 	sbc	a,a			;;
   024A 94            [ 4]  553 	sub	h			;;
   024B 67            [ 4]  554 	ld	h,a			;; negate HL
                            555 
ASxxxx Assembler V02.00 + NoICE + SDCC mods  (Zilog Z80 / Hitachi HD64180), page 15.
Hexadecimal [16-Bits]



   024C C9            [10]  556 	ret
                            557 
                            558 ;; ====================================
                            559 ;; ====================================
                            560 ;; PRIVATE FUNCTIONS
                            561 ;; ====================================
                            562 ;; ====================================
                            563 
                            564 
                            565 
                            566 ;; =========================================
                            567 ;; Modifica la x de la entidad a la pasada
                            568 ;; 	por parámetro
                            569 ;; Entrada:
                            570 ;; 	IX => Pointer to entity data
                            571 ;; 	HL => value we are going to set
                            572 ;; Modifica AF
                            573 ;; =========================================
   024D                     574 setX:
   024D DD 74 00      [19]  575 	ld	Ent_x_I(ix), h
   0250 DD 75 01      [19]  576 	ld	Ent_x_F(ix), l		;; Ent_x_I <= HL
                            577 
   0253 C9            [10]  578 	ret
                            579 
                            580 
                            581 ;; =========================================
                            582 ;; Modifica las de últimas posiciones X
                            583 ;	de la entidad
                            584 ;; Entrada:
                            585 ;; 	IX => Pointer to entity data
                            586 ;; Modifica AF
                            587 ;; =========================================
   0254                     588 updateX:
   0254 DD 7E 10      [19]  589 	ld	a, Ent_last_x(ix)
   0257 DD 77 11      [19]  590 	ld 	Ent_erase_x(ix), a	;; Ent_erase_x <= Ent_last_x
                            591 
   025A DD 7E 00      [19]  592 	ld	a, Ent_x_I(ix)
   025D DD 77 10      [19]  593 	ld 	Ent_last_x(ix), a	;; Ent_last_x <= Ent_x_I
   0260 C9            [10]  594 	ret
                            595 
                            596 
                            597 ;; =========================================
                            598 ;; Modifica la y de la entidad a la pasada
                            599 ;; 	por parámetro
                            600 ;; Entrada:
                            601 ;; 	IX => Pointer to entity data
                            602 ;; 	HL => value we are going to set
                            603 ;; Modifica AF
                            604 ;; =========================================
   0261                     605 setY:
                            606 
   0261 DD 74 02      [19]  607 	ld	Ent_y_I(ix), h
   0264 DD 75 03      [19]  608 	ld	Ent_y_F(ix), l		;; Ent_y_I <= HL
                            609 
   0267 C9            [10]  610 	ret
ASxxxx Assembler V02.00 + NoICE + SDCC mods  (Zilog Z80 / Hitachi HD64180), page 16.
Hexadecimal [16-Bits]



                            611 
                            612 
                            613 ;; =========================================
                            614 ;; Modifica las de últimas posiciones Y
                            615 ;	de la entidad
                            616 ;; Entrada:
                            617 ;; 	IX => Pointer to entity data
                            618 ;; Modifica AF
                            619 ;; =========================================
   0268                     620 updateY:
   0268 DD 7E 12      [19]  621 	ld	a, Ent_last_y(ix)
   026B DD 77 13      [19]  622 	ld 	Ent_erase_y(ix), a	;; Ent_erase_y <= Ent_last_y
                            623 
   026E DD 7E 02      [19]  624 	ld	a, Ent_y_I(ix)
   0271 DD 77 12      [19]  625 	ld 	Ent_last_y(ix), a	;; Ent_last_y <= Ent_y_I
   0274 C9            [10]  626 	ret
                            627 
                            628 
                            629 ;; Transparent mask table definition
   0275                     630 transparent_mask:
                            631  ;;     .db 0x00, 0x00, 0x00, 0x00, 0x00, 0x00, 0x00, 0x00
                            632  ;;     .db 0x00, 0x00, 0x00, 0x00, 0x00, 0x00, 0x00, 0x00
                            633  ;;     .db 0x00, 0x00, 0x00, 0x00, 0x00, 0x00, 0x00, 0x00
                            634  ;;     .db 0x00, 0x00, 0x00, 0x00, 0x00, 0x00, 0x00, 0x00
                            635  ;;     .db 0x00, 0x00, 0x00, 0x00, 0x00, 0x00, 0x00, 0x00
                            636  ;;     .db 0x00, 0x00, 0x00, 0x00, 0x00, 0x00, 0x00, 0x00
                            637  ;;     .db 0x00, 0x00, 0x00, 0x00, 0x00, 0x00, 0x00, 0x00
                            638  ;;     .db 0x00, 0x00, 0x00, 0x00, 0x00, 0x00, 0x00, 0x00
                            639  ;;     .db 0x00, 0x55, 0x00, 0x55, 0x00, 0x00, 0x00, 0x00
                            640  ;;     .db 0x00, 0x55, 0x00, 0x55, 0x00, 0x00, 0x00, 0x00
                            641  ;;     .db 0x00, 0x00, 0x00, 0x00, 0x00, 0x00, 0x00, 0x00
                            642  ;;     .db 0x00, 0x00, 0x00, 0x00, 0x00, 0x00, 0x00, 0x00
                            643  ;;     .db 0x00, 0x55, 0x00, 0x55, 0x00, 0x00, 0x00, 0x00
                            644  ;;     .db 0x00, 0x55, 0x00, 0x55, 0x00, 0x00, 0x00, 0x00
                            645  ;;     .db 0x00, 0x00, 0x00, 0x00, 0x00, 0x00, 0x00, 0x00
                            646  ;;     .db 0x00, 0x00, 0x00, 0x00, 0x00, 0x00, 0x00, 0x00
                            647  ;;     .db 0x00, 0x00, 0xAA, 0xAA, 0x00, 0x00, 0xAA, 0xAA
                            648  ;;     .db 0x00, 0x00, 0x00, 0x00, 0x00, 0x00, 0x00, 0x00
                            649  ;;     .db 0x00, 0x00, 0xAA, 0xAA, 0x00, 0x00, 0xAA, 0xAA
                            650  ;;     .db 0x00, 0x00, 0x00, 0x00, 0x00, 0x00, 0x00, 0x00
                            651  ;;     .db 0x00, 0x00, 0x00, 0x00, 0x00, 0x00, 0x00, 0x00
                            652  ;;     .db 0x00, 0x00, 0x00, 0x00, 0x00, 0x00, 0x00, 0x00
                            653  ;;     .db 0x00, 0x00, 0x00, 0x00, 0x00, 0x00, 0x00, 0x00
                            654  ;;     .db 0x00, 0x00, 0x00, 0x00, 0x00, 0x00, 0x00, 0x00
                            655  ;;     .db 0x00, 0x55, 0xAA, 0xFF, 0x00, 0x00, 0xAA, 0xAA
                            656  ;;     .db 0x00, 0x55, 0x00, 0x55, 0x00, 0x00, 0x00, 0x00
                            657  ;;     .db 0x00, 0x00, 0xAA, 0xAA, 0x00, 0x00, 0xAA, 0xAA
                            658  ;;     .db 0x00, 0x00, 0x00, 0x00, 0x00, 0x00, 0x00, 0x00
                            659  ;;     .db 0x00, 0x55, 0x00, 0x55, 0x00, 0x00, 0x00, 0x00
                            660  ;;     .db 0x00, 0x55, 0x00, 0x55, 0x00, 0x00, 0x00, 0x00
                            661  ;;     .db 0x00, 0x00, 0x00, 0x00, 0x00, 0x00, 0x00, 0x00
                            662  ;;     .db 0x00, 0x00, 0x00, 0x00, 0x00, 0x00, 0x00, 0x00
